
HMI_ECU.elf:     file format elf32-avr

Sections:
Idx Name          Size      VMA       LMA       File off  Algn
  0 .text         00000cdc  00000000  00000000  00000094  2**1
                  CONTENTS, ALLOC, LOAD, READONLY, CODE
  1 .data         00000114  00800060  00000cdc  00000d70  2**0
                  CONTENTS, ALLOC, LOAD, DATA
  2 .bss          0000000b  00800174  00800174  00000e84  2**0
                  ALLOC

Disassembly of section .text:

00000000 <__vectors>:
   0:	0c 94 2a 00 	jmp	0x54	; 0x54 <__ctors_end>
   4:	0c 94 47 00 	jmp	0x8e	; 0x8e <__bad_interrupt>
   8:	0c 94 47 00 	jmp	0x8e	; 0x8e <__bad_interrupt>
   c:	0c 94 47 00 	jmp	0x8e	; 0x8e <__bad_interrupt>
  10:	0c 94 47 00 	jmp	0x8e	; 0x8e <__bad_interrupt>
  14:	0c 94 47 00 	jmp	0x8e	; 0x8e <__bad_interrupt>
  18:	0c 94 47 00 	jmp	0x8e	; 0x8e <__bad_interrupt>
  1c:	0c 94 74 02 	jmp	0x4e8	; 0x4e8 <__vector_7>
  20:	0c 94 47 00 	jmp	0x8e	; 0x8e <__bad_interrupt>
  24:	0c 94 c0 02 	jmp	0x580	; 0x580 <__vector_9>
  28:	0c 94 47 00 	jmp	0x8e	; 0x8e <__bad_interrupt>
  2c:	0c 94 47 00 	jmp	0x8e	; 0x8e <__bad_interrupt>
  30:	0c 94 47 00 	jmp	0x8e	; 0x8e <__bad_interrupt>
  34:	0c 94 47 00 	jmp	0x8e	; 0x8e <__bad_interrupt>
  38:	0c 94 47 00 	jmp	0x8e	; 0x8e <__bad_interrupt>
  3c:	0c 94 47 00 	jmp	0x8e	; 0x8e <__bad_interrupt>
  40:	0c 94 47 00 	jmp	0x8e	; 0x8e <__bad_interrupt>
  44:	0c 94 47 00 	jmp	0x8e	; 0x8e <__bad_interrupt>
  48:	0c 94 47 00 	jmp	0x8e	; 0x8e <__bad_interrupt>
  4c:	0c 94 47 00 	jmp	0x8e	; 0x8e <__bad_interrupt>
  50:	0c 94 47 00 	jmp	0x8e	; 0x8e <__bad_interrupt>

00000054 <__ctors_end>:
  54:	11 24       	eor	r1, r1
  56:	1f be       	out	0x3f, r1	; 63
  58:	cf e5       	ldi	r28, 0x5F	; 95
  5a:	d8 e0       	ldi	r29, 0x08	; 8
  5c:	de bf       	out	0x3e, r29	; 62
  5e:	cd bf       	out	0x3d, r28	; 61

00000060 <__do_copy_data>:
  60:	11 e0       	ldi	r17, 0x01	; 1
  62:	a0 e6       	ldi	r26, 0x60	; 96
  64:	b0 e0       	ldi	r27, 0x00	; 0
  66:	ec ed       	ldi	r30, 0xDC	; 220
  68:	fc e0       	ldi	r31, 0x0C	; 12
  6a:	02 c0       	rjmp	.+4      	; 0x70 <.do_copy_data_start>

0000006c <.do_copy_data_loop>:
  6c:	05 90       	lpm	r0, Z+
  6e:	0d 92       	st	X+, r0

00000070 <.do_copy_data_start>:
  70:	a4 37       	cpi	r26, 0x74	; 116
  72:	b1 07       	cpc	r27, r17
  74:	d9 f7       	brne	.-10     	; 0x6c <.do_copy_data_loop>

00000076 <__do_clear_bss>:
  76:	11 e0       	ldi	r17, 0x01	; 1
  78:	a4 e7       	ldi	r26, 0x74	; 116
  7a:	b1 e0       	ldi	r27, 0x01	; 1
  7c:	01 c0       	rjmp	.+2      	; 0x80 <.do_clear_bss_start>

0000007e <.do_clear_bss_loop>:
  7e:	1d 92       	st	X+, r1

00000080 <.do_clear_bss_start>:
  80:	af 37       	cpi	r26, 0x7F	; 127
  82:	b1 07       	cpc	r27, r17
  84:	e1 f7       	brne	.-8      	; 0x7e <.do_clear_bss_loop>
  86:	0e 94 4e 01 	call	0x29c	; 0x29c <main>
  8a:	0c 94 6c 06 	jmp	0xcd8	; 0xcd8 <_exit>

0000008e <__bad_interrupt>:
  8e:	0c 94 00 00 	jmp	0	; 0x0 <__vectors>

00000092 <checkNumber>:
  92:	90 e0       	ldi	r25, 0x00	; 0
  94:	8a 30       	cpi	r24, 0x0A	; 10
  96:	08 f4       	brcc	.+2      	; 0x9a <checkNumber+0x8>
  98:	91 e0       	ldi	r25, 0x01	; 1
  9a:	89 2f       	mov	r24, r25
  9c:	08 95       	ret

0000009e <Timer1_INT>:
  9e:	80 91 75 01 	lds	r24, 0x0175
  a2:	8f 5f       	subi	r24, 0xFF	; 255
  a4:	80 93 75 01 	sts	0x0175, r24
  a8:	08 95       	ret

000000aa <doorOperation>:
  aa:	0e 94 64 05 	call	0xac8	; 0xac8 <LCD_clearScreen>
  ae:	80 e0       	ldi	r24, 0x00	; 0
  b0:	60 e0       	ldi	r22, 0x00	; 0
  b2:	40 e6       	ldi	r20, 0x60	; 96
  b4:	50 e0       	ldi	r21, 0x00	; 0
  b6:	0e 94 7b 05 	call	0xaf6	; 0xaf6 <LCD_displayStringRowColumn>
  ba:	81 e0       	ldi	r24, 0x01	; 1
  bc:	60 e0       	ldi	r22, 0x00	; 0
  be:	48 e6       	ldi	r20, 0x68	; 104
  c0:	50 e0       	ldi	r21, 0x00	; 0
  c2:	0e 94 7b 05 	call	0xaf6	; 0xaf6 <LCD_displayStringRowColumn>
  c6:	89 e6       	ldi	r24, 0x69	; 105
  c8:	91 e0       	ldi	r25, 0x01	; 1
  ca:	0e 94 a2 02 	call	0x544	; 0x544 <Timer1_init>
  ce:	10 92 75 01 	sts	0x0175, r1
  d2:	ff cf       	rjmp	.-2      	; 0xd2 <doorOperation+0x28>

000000d4 <buzzerOperation>:
  d4:	0e 94 64 05 	call	0xac8	; 0xac8 <LCD_clearScreen>
  d8:	80 e0       	ldi	r24, 0x00	; 0
  da:	60 e0       	ldi	r22, 0x00	; 0
  dc:	45 e7       	ldi	r20, 0x75	; 117
  de:	50 e0       	ldi	r21, 0x00	; 0
  e0:	0e 94 7b 05 	call	0xaf6	; 0xaf6 <LCD_displayStringRowColumn>
  e4:	89 e6       	ldi	r24, 0x69	; 105
  e6:	91 e0       	ldi	r25, 0x01	; 1
  e8:	0e 94 a2 02 	call	0x544	; 0x544 <Timer1_init>
  ec:	10 92 75 01 	sts	0x0175, r1
  f0:	ff cf       	rjmp	.-2      	; 0xf0 <buzzerOperation+0x1c>

000000f2 <verifyPassword>:
  f2:	0f 93       	push	r16
  f4:	1f 93       	push	r17
  f6:	cf 93       	push	r28
  f8:	df 93       	push	r29
  fa:	00 e0       	ldi	r16, 0x00	; 0
  fc:	c8 ec       	ldi	r28, 0xC8	; 200
  fe:	d0 e0       	ldi	r29, 0x00	; 0
 100:	0e 94 31 04 	call	0x862	; 0x862 <KEYPAD_getPressedKey>
 104:	18 2f       	mov	r17, r24
 106:	8a 30       	cpi	r24, 0x0A	; 10
 108:	38 f4       	brcc	.+14     	; 0x118 <verifyPassword+0x26>
 10a:	8a e2       	ldi	r24, 0x2A	; 42
 10c:	0e 94 dd 04 	call	0x9ba	; 0x9ba <LCD_displayCharacter>
 110:	81 2f       	mov	r24, r17
 112:	0e 94 d9 05 	call	0xbb2	; 0xbb2 <UART_sendByte>
 116:	0f 5f       	subi	r16, 0xFF	; 255
 118:	88 e8       	ldi	r24, 0x88	; 136
 11a:	93 e1       	ldi	r25, 0x13	; 19
 11c:	fe 01       	movw	r30, r28
 11e:	31 97       	sbiw	r30, 0x01	; 1
 120:	f1 f7       	brne	.-4      	; 0x11e <verifyPassword+0x2c>
 122:	01 97       	sbiw	r24, 0x01	; 1
 124:	d9 f7       	brne	.-10     	; 0x11c <verifyPassword+0x2a>
 126:	05 30       	cpi	r16, 0x05	; 5
 128:	58 f3       	brcs	.-42     	; 0x100 <verifyPassword+0xe>
 12a:	06 c0       	rjmp	.+12     	; 0x138 <verifyPassword+0x46>
 12c:	80 e0       	ldi	r24, 0x00	; 0
 12e:	60 e0       	ldi	r22, 0x00	; 0
 130:	4e e7       	ldi	r20, 0x7E	; 126
 132:	50 e0       	ldi	r21, 0x00	; 0
 134:	0e 94 7b 05 	call	0xaf6	; 0xaf6 <LCD_displayStringRowColumn>
 138:	0e 94 31 04 	call	0x862	; 0x862 <KEYPAD_getPressedKey>
 13c:	8d 33       	cpi	r24, 0x3D	; 61
 13e:	b1 f7       	brne	.-20     	; 0x12c <verifyPassword+0x3a>
 140:	0e 94 dd 05 	call	0xbba	; 0xbba <UART_receiveByte>
 144:	80 93 7e 01 	sts	0x017E, r24
 148:	88 ee       	ldi	r24, 0xE8	; 232
 14a:	93 e0       	ldi	r25, 0x03	; 3
 14c:	28 ec       	ldi	r18, 0xC8	; 200
 14e:	30 e0       	ldi	r19, 0x00	; 0
 150:	f9 01       	movw	r30, r18
 152:	31 97       	sbiw	r30, 0x01	; 1
 154:	f1 f7       	brne	.-4      	; 0x152 <verifyPassword+0x60>
 156:	01 97       	sbiw	r24, 0x01	; 1
 158:	d9 f7       	brne	.-10     	; 0x150 <verifyPassword+0x5e>
 15a:	df 91       	pop	r29
 15c:	cf 91       	pop	r28
 15e:	1f 91       	pop	r17
 160:	0f 91       	pop	r16
 162:	08 95       	ret

00000164 <recievePassword>:
 164:	0f 93       	push	r16
 166:	1f 93       	push	r17
 168:	cf 93       	push	r28
 16a:	df 93       	push	r29
 16c:	0e 94 64 05 	call	0xac8	; 0xac8 <LCD_clearScreen>
 170:	80 e0       	ldi	r24, 0x00	; 0
 172:	60 e0       	ldi	r22, 0x00	; 0
 174:	48 e8       	ldi	r20, 0x88	; 136
 176:	50 e0       	ldi	r21, 0x00	; 0
 178:	0e 94 7b 05 	call	0xaf6	; 0xaf6 <LCD_displayStringRowColumn>
 17c:	81 e0       	ldi	r24, 0x01	; 1
 17e:	60 e0       	ldi	r22, 0x00	; 0
 180:	48 e9       	ldi	r20, 0x98	; 152
 182:	50 e0       	ldi	r21, 0x00	; 0
 184:	0e 94 7b 05 	call	0xaf6	; 0xaf6 <LCD_displayStringRowColumn>
 188:	80 e1       	ldi	r24, 0x10	; 16
 18a:	97 e2       	ldi	r25, 0x27	; 39
 18c:	28 ec       	ldi	r18, 0xC8	; 200
 18e:	30 e0       	ldi	r19, 0x00	; 0
 190:	f9 01       	movw	r30, r18
 192:	31 97       	sbiw	r30, 0x01	; 1
 194:	f1 f7       	brne	.-4      	; 0x192 <recievePassword+0x2e>
 196:	01 97       	sbiw	r24, 0x01	; 1
 198:	d9 f7       	brne	.-10     	; 0x190 <recievePassword+0x2c>
 19a:	0e 94 64 05 	call	0xac8	; 0xac8 <LCD_clearScreen>
 19e:	80 e0       	ldi	r24, 0x00	; 0
 1a0:	60 e0       	ldi	r22, 0x00	; 0
 1a2:	48 e8       	ldi	r20, 0x88	; 136
 1a4:	50 e0       	ldi	r21, 0x00	; 0
 1a6:	0e 94 7b 05 	call	0xaf6	; 0xaf6 <LCD_displayStringRowColumn>
 1aa:	81 e0       	ldi	r24, 0x01	; 1
 1ac:	60 e0       	ldi	r22, 0x00	; 0
 1ae:	0e 94 68 05 	call	0xad0	; 0xad0 <LCD_moveCursor>
 1b2:	00 e0       	ldi	r16, 0x00	; 0
 1b4:	c8 ec       	ldi	r28, 0xC8	; 200
 1b6:	d0 e0       	ldi	r29, 0x00	; 0
 1b8:	0e 94 31 04 	call	0x862	; 0x862 <KEYPAD_getPressedKey>
 1bc:	18 2f       	mov	r17, r24
 1be:	8a 30       	cpi	r24, 0x0A	; 10
 1c0:	38 f4       	brcc	.+14     	; 0x1d0 <recievePassword+0x6c>
 1c2:	8a e2       	ldi	r24, 0x2A	; 42
 1c4:	0e 94 dd 04 	call	0x9ba	; 0x9ba <LCD_displayCharacter>
 1c8:	81 2f       	mov	r24, r17
 1ca:	0e 94 d9 05 	call	0xbb2	; 0xbb2 <UART_sendByte>
 1ce:	0f 5f       	subi	r16, 0xFF	; 255
 1d0:	88 e8       	ldi	r24, 0x88	; 136
 1d2:	93 e1       	ldi	r25, 0x13	; 19
 1d4:	fe 01       	movw	r30, r28
 1d6:	31 97       	sbiw	r30, 0x01	; 1
 1d8:	f1 f7       	brne	.-4      	; 0x1d6 <recievePassword+0x72>
 1da:	01 97       	sbiw	r24, 0x01	; 1
 1dc:	d9 f7       	brne	.-10     	; 0x1d4 <recievePassword+0x70>
 1de:	05 30       	cpi	r16, 0x05	; 5
 1e0:	58 f3       	brcs	.-42     	; 0x1b8 <recievePassword+0x54>
 1e2:	0e 94 31 04 	call	0x862	; 0x862 <KEYPAD_getPressedKey>
 1e6:	06 c0       	rjmp	.+12     	; 0x1f4 <recievePassword+0x90>
 1e8:	80 e0       	ldi	r24, 0x00	; 0
 1ea:	60 e0       	ldi	r22, 0x00	; 0
 1ec:	4e e7       	ldi	r20, 0x7E	; 126
 1ee:	50 e0       	ldi	r21, 0x00	; 0
 1f0:	0e 94 7b 05 	call	0xaf6	; 0xaf6 <LCD_displayStringRowColumn>
 1f4:	0e 94 31 04 	call	0x862	; 0x862 <KEYPAD_getPressedKey>
 1f8:	8d 33       	cpi	r24, 0x3D	; 61
 1fa:	b1 f7       	brne	.-20     	; 0x1e8 <recievePassword+0x84>
 1fc:	88 e8       	ldi	r24, 0x88	; 136
 1fe:	93 e1       	ldi	r25, 0x13	; 19
 200:	28 ec       	ldi	r18, 0xC8	; 200
 202:	30 e0       	ldi	r19, 0x00	; 0
 204:	f9 01       	movw	r30, r18
 206:	31 97       	sbiw	r30, 0x01	; 1
 208:	f1 f7       	brne	.-4      	; 0x206 <recievePassword+0xa2>
 20a:	01 97       	sbiw	r24, 0x01	; 1
 20c:	d9 f7       	brne	.-10     	; 0x204 <recievePassword+0xa0>
 20e:	0e 94 64 05 	call	0xac8	; 0xac8 <LCD_clearScreen>
 212:	80 e0       	ldi	r24, 0x00	; 0
 214:	60 e0       	ldi	r22, 0x00	; 0
 216:	49 ea       	ldi	r20, 0xA9	; 169
 218:	50 e0       	ldi	r21, 0x00	; 0
 21a:	0e 94 7b 05 	call	0xaf6	; 0xaf6 <LCD_displayStringRowColumn>
 21e:	81 e0       	ldi	r24, 0x01	; 1
 220:	60 e0       	ldi	r22, 0x00	; 0
 222:	46 eb       	ldi	r20, 0xB6	; 182
 224:	50 e0       	ldi	r21, 0x00	; 0
 226:	0e 94 7b 05 	call	0xaf6	; 0xaf6 <LCD_displayStringRowColumn>
 22a:	81 e0       	ldi	r24, 0x01	; 1
 22c:	66 e0       	ldi	r22, 0x06	; 6
 22e:	0e 94 68 05 	call	0xad0	; 0xad0 <LCD_moveCursor>
 232:	00 e0       	ldi	r16, 0x00	; 0
 234:	c8 ec       	ldi	r28, 0xC8	; 200
 236:	d0 e0       	ldi	r29, 0x00	; 0
 238:	0e 94 31 04 	call	0x862	; 0x862 <KEYPAD_getPressedKey>
 23c:	18 2f       	mov	r17, r24
 23e:	8a 30       	cpi	r24, 0x0A	; 10
 240:	38 f4       	brcc	.+14     	; 0x250 <recievePassword+0xec>
 242:	8a e2       	ldi	r24, 0x2A	; 42
 244:	0e 94 dd 04 	call	0x9ba	; 0x9ba <LCD_displayCharacter>
 248:	81 2f       	mov	r24, r17
 24a:	0e 94 d9 05 	call	0xbb2	; 0xbb2 <UART_sendByte>
 24e:	0f 5f       	subi	r16, 0xFF	; 255
 250:	88 e8       	ldi	r24, 0x88	; 136
 252:	93 e1       	ldi	r25, 0x13	; 19
 254:	fe 01       	movw	r30, r28
 256:	31 97       	sbiw	r30, 0x01	; 1
 258:	f1 f7       	brne	.-4      	; 0x256 <recievePassword+0xf2>
 25a:	01 97       	sbiw	r24, 0x01	; 1
 25c:	d9 f7       	brne	.-10     	; 0x254 <recievePassword+0xf0>
 25e:	05 30       	cpi	r16, 0x05	; 5
 260:	58 f3       	brcs	.-42     	; 0x238 <recievePassword+0xd4>
 262:	06 c0       	rjmp	.+12     	; 0x270 <recievePassword+0x10c>
 264:	80 e0       	ldi	r24, 0x00	; 0
 266:	60 e0       	ldi	r22, 0x00	; 0
 268:	4e e7       	ldi	r20, 0x7E	; 126
 26a:	50 e0       	ldi	r21, 0x00	; 0
 26c:	0e 94 7b 05 	call	0xaf6	; 0xaf6 <LCD_displayStringRowColumn>
 270:	0e 94 31 04 	call	0x862	; 0x862 <KEYPAD_getPressedKey>
 274:	8d 33       	cpi	r24, 0x3D	; 61
 276:	b1 f7       	brne	.-20     	; 0x264 <recievePassword+0x100>
 278:	0e 94 dd 05 	call	0xbba	; 0xbba <UART_receiveByte>
 27c:	80 93 7e 01 	sts	0x017E, r24
 280:	88 ee       	ldi	r24, 0xE8	; 232
 282:	93 e0       	ldi	r25, 0x03	; 3
 284:	28 ec       	ldi	r18, 0xC8	; 200
 286:	30 e0       	ldi	r19, 0x00	; 0
 288:	f9 01       	movw	r30, r18
 28a:	31 97       	sbiw	r30, 0x01	; 1
 28c:	f1 f7       	brne	.-4      	; 0x28a <recievePassword+0x126>
 28e:	01 97       	sbiw	r24, 0x01	; 1
 290:	d9 f7       	brne	.-10     	; 0x288 <recievePassword+0x124>
 292:	df 91       	pop	r29
 294:	cf 91       	pop	r28
 296:	1f 91       	pop	r17
 298:	0f 91       	pop	r16
 29a:	08 95       	ret

0000029c <main>:
 29c:	ef 92       	push	r14
 29e:	ff 92       	push	r15
 2a0:	0f 93       	push	r16
 2a2:	1f 93       	push	r17
 2a4:	df 93       	push	r29
 2a6:	cf 93       	push	r28
 2a8:	00 d0       	rcall	.+0      	; 0x2aa <main+0xe>
 2aa:	00 d0       	rcall	.+0      	; 0x2ac <main+0x10>
 2ac:	0f 92       	push	r0
 2ae:	cd b7       	in	r28, 0x3d	; 61
 2b0:	de b7       	in	r29, 0x3e	; 62
 2b2:	8f b7       	in	r24, 0x3f	; 63
 2b4:	80 68       	ori	r24, 0x80	; 128
 2b6:	8f bf       	out	0x3f, r24	; 63
 2b8:	de 01       	movw	r26, r28
 2ba:	11 96       	adiw	r26, 0x01	; 1
 2bc:	ef e6       	ldi	r30, 0x6F	; 111
 2be:	f1 e0       	ldi	r31, 0x01	; 1
 2c0:	85 e0       	ldi	r24, 0x05	; 5
 2c2:	01 90       	ld	r0, Z+
 2c4:	0d 92       	st	X+, r0
 2c6:	81 50       	subi	r24, 0x01	; 1
 2c8:	e1 f7       	brne	.-8      	; 0x2c2 <main+0x26>
 2ca:	ce 01       	movw	r24, r28
 2cc:	01 96       	adiw	r24, 0x01	; 1
 2ce:	0e 94 a2 05 	call	0xb44	; 0xb44 <UART_init>
 2d2:	8f e4       	ldi	r24, 0x4F	; 79
 2d4:	90 e0       	ldi	r25, 0x00	; 0
 2d6:	0e 94 9d 02 	call	0x53a	; 0x53a <Timer1_setCallBack>
 2da:	0e 94 86 05 	call	0xb0c	; 0xb0c <LCD_init>
 2de:	08 ec       	ldi	r16, 0xC8	; 200
 2e0:	10 e0       	ldi	r17, 0x00	; 0
 2e2:	0e 94 64 05 	call	0xac8	; 0xac8 <LCD_clearScreen>
 2e6:	80 e0       	ldi	r24, 0x00	; 0
 2e8:	65 e0       	ldi	r22, 0x05	; 5
 2ea:	4c eb       	ldi	r20, 0xBC	; 188
 2ec:	50 e0       	ldi	r21, 0x00	; 0
 2ee:	0e 94 7b 05 	call	0xaf6	; 0xaf6 <LCD_displayStringRowColumn>
 2f2:	81 e0       	ldi	r24, 0x01	; 1
 2f4:	62 e0       	ldi	r22, 0x02	; 2
 2f6:	43 ec       	ldi	r20, 0xC3	; 195
 2f8:	50 e0       	ldi	r21, 0x00	; 0
 2fa:	0e 94 7b 05 	call	0xaf6	; 0xaf6 <LCD_displayStringRowColumn>
 2fe:	88 e9       	ldi	r24, 0x98	; 152
 300:	9a e3       	ldi	r25, 0x3A	; 58
 302:	f8 01       	movw	r30, r16
 304:	31 97       	sbiw	r30, 0x01	; 1
 306:	f1 f7       	brne	.-4      	; 0x304 <main+0x68>
 308:	01 97       	sbiw	r24, 0x01	; 1
 30a:	d9 f7       	brne	.-10     	; 0x302 <main+0x66>
 30c:	82 e0       	ldi	r24, 0x02	; 2
 30e:	0e 94 d9 05 	call	0xbb2	; 0xbb2 <UART_sendByte>
 312:	0e 94 b2 00 	call	0x164	; 0x164 <recievePassword>
 316:	80 91 7e 01 	lds	r24, 0x017E
 31a:	81 3f       	cpi	r24, 0xF1	; 241
 31c:	29 f1       	breq	.+74     	; 0x368 <main+0xcc>
 31e:	0e 94 64 05 	call	0xac8	; 0xac8 <LCD_clearScreen>
 322:	80 e0       	ldi	r24, 0x00	; 0
 324:	60 e0       	ldi	r22, 0x00	; 0
 326:	40 ed       	ldi	r20, 0xD0	; 208
 328:	50 e0       	ldi	r21, 0x00	; 0
 32a:	0e 94 7b 05 	call	0xaf6	; 0xaf6 <LCD_displayStringRowColumn>
 32e:	81 e0       	ldi	r24, 0x01	; 1
 330:	60 e0       	ldi	r22, 0x00	; 0
 332:	40 ee       	ldi	r20, 0xE0	; 224
 334:	50 e0       	ldi	r21, 0x00	; 0
 336:	0e 94 7b 05 	call	0xaf6	; 0xaf6 <LCD_displayStringRowColumn>
 33a:	80 e1       	ldi	r24, 0x10	; 16
 33c:	97 e2       	ldi	r25, 0x27	; 39
 33e:	f8 01       	movw	r30, r16
 340:	31 97       	sbiw	r30, 0x01	; 1
 342:	f1 f7       	brne	.-4      	; 0x340 <main+0xa4>
 344:	01 97       	sbiw	r24, 0x01	; 1
 346:	d9 f7       	brne	.-10     	; 0x33e <main+0xa2>
 348:	0e 94 64 05 	call	0xac8	; 0xac8 <LCD_clearScreen>
 34c:	80 e0       	ldi	r24, 0x00	; 0
 34e:	60 e0       	ldi	r22, 0x00	; 0
 350:	46 ee       	ldi	r20, 0xE6	; 230
 352:	50 e0       	ldi	r21, 0x00	; 0
 354:	0e 94 7b 05 	call	0xaf6	; 0xaf6 <LCD_displayStringRowColumn>
 358:	88 e8       	ldi	r24, 0x88	; 136
 35a:	93 e1       	ldi	r25, 0x13	; 19
 35c:	f8 01       	movw	r30, r16
 35e:	31 97       	sbiw	r30, 0x01	; 1
 360:	f1 f7       	brne	.-4      	; 0x35e <main+0xc2>
 362:	01 97       	sbiw	r24, 0x01	; 1
 364:	d9 f7       	brne	.-10     	; 0x35c <main+0xc0>
 366:	bd cf       	rjmp	.-134    	; 0x2e2 <main+0x46>
 368:	88 ec       	ldi	r24, 0xC8	; 200
 36a:	e8 2e       	mov	r14, r24
 36c:	f1 2c       	mov	r15, r1
 36e:	0e 94 64 05 	call	0xac8	; 0xac8 <LCD_clearScreen>
 372:	80 e0       	ldi	r24, 0x00	; 0
 374:	60 e0       	ldi	r22, 0x00	; 0
 376:	40 ef       	ldi	r20, 0xF0	; 240
 378:	50 e0       	ldi	r21, 0x00	; 0
 37a:	0e 94 7b 05 	call	0xaf6	; 0xaf6 <LCD_displayStringRowColumn>
 37e:	81 e0       	ldi	r24, 0x01	; 1
 380:	60 e0       	ldi	r22, 0x00	; 0
 382:	4e ef       	ldi	r20, 0xFE	; 254
 384:	50 e0       	ldi	r21, 0x00	; 0
 386:	0e 94 7b 05 	call	0xaf6	; 0xaf6 <LCD_displayStringRowColumn>
 38a:	88 ee       	ldi	r24, 0xE8	; 232
 38c:	93 e0       	ldi	r25, 0x03	; 3
 38e:	f7 01       	movw	r30, r14
 390:	31 97       	sbiw	r30, 0x01	; 1
 392:	f1 f7       	brne	.-4      	; 0x390 <main+0xf4>
 394:	01 97       	sbiw	r24, 0x01	; 1
 396:	d9 f7       	brne	.-10     	; 0x38e <main+0xf2>
 398:	0e 94 31 04 	call	0x862	; 0x862 <KEYPAD_getPressedKey>
 39c:	08 2f       	mov	r16, r24
 39e:	8b 32       	cpi	r24, 0x2B	; 43
 3a0:	11 f0       	breq	.+4      	; 0x3a6 <main+0x10a>
 3a2:	8d 32       	cpi	r24, 0x2D	; 45
 3a4:	c9 f7       	brne	.-14     	; 0x398 <main+0xfc>
 3a6:	0e 94 64 05 	call	0xac8	; 0xac8 <LCD_clearScreen>
 3aa:	10 e0       	ldi	r17, 0x00	; 0
 3ac:	83 e0       	ldi	r24, 0x03	; 3
 3ae:	0e 94 d9 05 	call	0xbb2	; 0xbb2 <UART_sendByte>
 3b2:	80 e0       	ldi	r24, 0x00	; 0
 3b4:	60 e0       	ldi	r22, 0x00	; 0
 3b6:	48 e8       	ldi	r20, 0x88	; 136
 3b8:	50 e0       	ldi	r21, 0x00	; 0
 3ba:	0e 94 7b 05 	call	0xaf6	; 0xaf6 <LCD_displayStringRowColumn>
 3be:	81 e0       	ldi	r24, 0x01	; 1
 3c0:	66 e0       	ldi	r22, 0x06	; 6
 3c2:	0e 94 68 05 	call	0xad0	; 0xad0 <LCD_moveCursor>
 3c6:	0e 94 79 00 	call	0xf2	; 0xf2 <verifyPassword>
 3ca:	80 91 7e 01 	lds	r24, 0x017E
 3ce:	81 3f       	cpi	r24, 0xF1	; 241
 3d0:	b1 f0       	breq	.+44     	; 0x3fe <main+0x162>
 3d2:	80 e0       	ldi	r24, 0x00	; 0
 3d4:	60 e0       	ldi	r22, 0x00	; 0
 3d6:	4e e0       	ldi	r20, 0x0E	; 14
 3d8:	51 e0       	ldi	r21, 0x01	; 1
 3da:	0e 94 7b 05 	call	0xaf6	; 0xaf6 <LCD_displayStringRowColumn>
 3de:	81 e0       	ldi	r24, 0x01	; 1
 3e0:	60 e0       	ldi	r22, 0x00	; 0
 3e2:	4e e1       	ldi	r20, 0x1E	; 30
 3e4:	51 e0       	ldi	r21, 0x01	; 1
 3e6:	0e 94 7b 05 	call	0xaf6	; 0xaf6 <LCD_displayStringRowColumn>
 3ea:	88 e8       	ldi	r24, 0x88	; 136
 3ec:	93 e1       	ldi	r25, 0x13	; 19
 3ee:	f7 01       	movw	r30, r14
 3f0:	31 97       	sbiw	r30, 0x01	; 1
 3f2:	f1 f7       	brne	.-4      	; 0x3f0 <main+0x154>
 3f4:	01 97       	sbiw	r24, 0x01	; 1
 3f6:	d9 f7       	brne	.-10     	; 0x3ee <main+0x152>
 3f8:	1f 5f       	subi	r17, 0xFF	; 255
 3fa:	13 30       	cpi	r17, 0x03	; 3
 3fc:	b9 f6       	brne	.-82     	; 0x3ac <main+0x110>
 3fe:	80 91 7e 01 	lds	r24, 0x017E
 402:	8f 3f       	cpi	r24, 0xFF	; 255
 404:	09 f4       	brne	.+2      	; 0x408 <main+0x16c>
 406:	57 c0       	rjmp	.+174    	; 0x4b6 <main+0x21a>
 408:	0b 32       	cpi	r16, 0x2B	; 43
 40a:	31 f4       	brne	.+12     	; 0x418 <main+0x17c>
 40c:	8b e2       	ldi	r24, 0x2B	; 43
 40e:	0e 94 d9 05 	call	0xbb2	; 0xbb2 <UART_sendByte>
 412:	0e 94 55 00 	call	0xaa	; 0xaa <doorOperation>
 416:	ab cf       	rjmp	.-170    	; 0x36e <main+0xd2>
 418:	0d 32       	cpi	r16, 0x2D	; 45
 41a:	09 f0       	breq	.+2      	; 0x41e <main+0x182>
 41c:	a8 cf       	rjmp	.-176    	; 0x36e <main+0xd2>
 41e:	0e 94 64 05 	call	0xac8	; 0xac8 <LCD_clearScreen>
 422:	80 e0       	ldi	r24, 0x00	; 0
 424:	65 e0       	ldi	r22, 0x05	; 5
 426:	4d e2       	ldi	r20, 0x2D	; 45
 428:	51 e0       	ldi	r21, 0x01	; 1
 42a:	0e 94 7b 05 	call	0xaf6	; 0xaf6 <LCD_displayStringRowColumn>
 42e:	81 e0       	ldi	r24, 0x01	; 1
 430:	62 e0       	ldi	r22, 0x02	; 2
 432:	44 e3       	ldi	r20, 0x34	; 52
 434:	51 e0       	ldi	r21, 0x01	; 1
 436:	0e 94 7b 05 	call	0xaf6	; 0xaf6 <LCD_displayStringRowColumn>
 43a:	80 e1       	ldi	r24, 0x10	; 16
 43c:	97 e2       	ldi	r25, 0x27	; 39
 43e:	f7 01       	movw	r30, r14
 440:	31 97       	sbiw	r30, 0x01	; 1
 442:	f1 f7       	brne	.-4      	; 0x440 <main+0x1a4>
 444:	01 97       	sbiw	r24, 0x01	; 1
 446:	d9 f7       	brne	.-10     	; 0x43e <main+0x1a2>
 448:	10 e0       	ldi	r17, 0x00	; 0
 44a:	8d e2       	ldi	r24, 0x2D	; 45
 44c:	0e 94 d9 05 	call	0xbb2	; 0xbb2 <UART_sendByte>
 450:	0e 94 b2 00 	call	0x164	; 0x164 <recievePassword>
 454:	80 91 7e 01 	lds	r24, 0x017E
 458:	81 3f       	cpi	r24, 0xF1	; 241
 45a:	49 f1       	breq	.+82     	; 0x4ae <main+0x212>
 45c:	0e 94 64 05 	call	0xac8	; 0xac8 <LCD_clearScreen>
 460:	80 e0       	ldi	r24, 0x00	; 0
 462:	60 e0       	ldi	r22, 0x00	; 0
 464:	42 e4       	ldi	r20, 0x42	; 66
 466:	51 e0       	ldi	r21, 0x01	; 1
 468:	0e 94 7b 05 	call	0xaf6	; 0xaf6 <LCD_displayStringRowColumn>
 46c:	81 e0       	ldi	r24, 0x01	; 1
 46e:	60 e0       	ldi	r22, 0x00	; 0
 470:	40 ee       	ldi	r20, 0xE0	; 224
 472:	50 e0       	ldi	r21, 0x00	; 0
 474:	0e 94 7b 05 	call	0xaf6	; 0xaf6 <LCD_displayStringRowColumn>
 478:	80 e1       	ldi	r24, 0x10	; 16
 47a:	97 e2       	ldi	r25, 0x27	; 39
 47c:	f7 01       	movw	r30, r14
 47e:	31 97       	sbiw	r30, 0x01	; 1
 480:	f1 f7       	brne	.-4      	; 0x47e <main+0x1e2>
 482:	01 97       	sbiw	r24, 0x01	; 1
 484:	d9 f7       	brne	.-10     	; 0x47c <main+0x1e0>
 486:	0e 94 64 05 	call	0xac8	; 0xac8 <LCD_clearScreen>
 48a:	12 30       	cpi	r17, 0x02	; 2
 48c:	31 f0       	breq	.+12     	; 0x49a <main+0x1fe>
 48e:	80 e0       	ldi	r24, 0x00	; 0
 490:	60 e0       	ldi	r22, 0x00	; 0
 492:	42 e5       	ldi	r20, 0x52	; 82
 494:	51 e0       	ldi	r21, 0x01	; 1
 496:	0e 94 7b 05 	call	0xaf6	; 0xaf6 <LCD_displayStringRowColumn>
 49a:	88 e8       	ldi	r24, 0x88	; 136
 49c:	93 e1       	ldi	r25, 0x13	; 19
 49e:	f7 01       	movw	r30, r14
 4a0:	31 97       	sbiw	r30, 0x01	; 1
 4a2:	f1 f7       	brne	.-4      	; 0x4a0 <main+0x204>
 4a4:	01 97       	sbiw	r24, 0x01	; 1
 4a6:	d9 f7       	brne	.-10     	; 0x49e <main+0x202>
 4a8:	1f 5f       	subi	r17, 0xFF	; 255
 4aa:	13 30       	cpi	r17, 0x03	; 3
 4ac:	71 f6       	brne	.-100    	; 0x44a <main+0x1ae>
 4ae:	80 91 7e 01 	lds	r24, 0x017E
 4b2:	8f 3f       	cpi	r24, 0xFF	; 255
 4b4:	31 f4       	brne	.+12     	; 0x4c2 <main+0x226>
 4b6:	80 e2       	ldi	r24, 0x20	; 32
 4b8:	0e 94 d9 05 	call	0xbb2	; 0xbb2 <UART_sendByte>
 4bc:	0e 94 6a 00 	call	0xd4	; 0xd4 <buzzerOperation>
 4c0:	56 cf       	rjmp	.-340    	; 0x36e <main+0xd2>
 4c2:	81 3f       	cpi	r24, 0xF1	; 241
 4c4:	09 f0       	breq	.+2      	; 0x4c8 <main+0x22c>
 4c6:	53 cf       	rjmp	.-346    	; 0x36e <main+0xd2>
 4c8:	0e 94 64 05 	call	0xac8	; 0xac8 <LCD_clearScreen>
 4cc:	80 e0       	ldi	r24, 0x00	; 0
 4ce:	60 e0       	ldi	r22, 0x00	; 0
 4d0:	4c e5       	ldi	r20, 0x5C	; 92
 4d2:	51 e0       	ldi	r21, 0x01	; 1
 4d4:	0e 94 7b 05 	call	0xaf6	; 0xaf6 <LCD_displayStringRowColumn>
 4d8:	88 e8       	ldi	r24, 0x88	; 136
 4da:	93 e1       	ldi	r25, 0x13	; 19
 4dc:	f7 01       	movw	r30, r14
 4de:	31 97       	sbiw	r30, 0x01	; 1
 4e0:	f1 f7       	brne	.-4      	; 0x4de <main+0x242>
 4e2:	01 97       	sbiw	r24, 0x01	; 1
 4e4:	d9 f7       	brne	.-10     	; 0x4dc <main+0x240>
 4e6:	43 cf       	rjmp	.-378    	; 0x36e <main+0xd2>

000004e8 <__vector_7>:
 4e8:	1f 92       	push	r1
 4ea:	0f 92       	push	r0
 4ec:	0f b6       	in	r0, 0x3f	; 63
 4ee:	0f 92       	push	r0
 4f0:	11 24       	eor	r1, r1
 4f2:	2f 93       	push	r18
 4f4:	3f 93       	push	r19
 4f6:	4f 93       	push	r20
 4f8:	5f 93       	push	r21
 4fa:	6f 93       	push	r22
 4fc:	7f 93       	push	r23
 4fe:	8f 93       	push	r24
 500:	9f 93       	push	r25
 502:	af 93       	push	r26
 504:	bf 93       	push	r27
 506:	ef 93       	push	r30
 508:	ff 93       	push	r31
 50a:	e0 91 76 01 	lds	r30, 0x0176
 50e:	f0 91 77 01 	lds	r31, 0x0177
 512:	30 97       	sbiw	r30, 0x00	; 0
 514:	09 f0       	breq	.+2      	; 0x518 <__vector_7+0x30>
 516:	09 95       	icall
 518:	ff 91       	pop	r31
 51a:	ef 91       	pop	r30
 51c:	bf 91       	pop	r27
 51e:	af 91       	pop	r26
 520:	9f 91       	pop	r25
 522:	8f 91       	pop	r24
 524:	7f 91       	pop	r23
 526:	6f 91       	pop	r22
 528:	5f 91       	pop	r21
 52a:	4f 91       	pop	r20
 52c:	3f 91       	pop	r19
 52e:	2f 91       	pop	r18
 530:	0f 90       	pop	r0
 532:	0f be       	out	0x3f, r0	; 63
 534:	0f 90       	pop	r0
 536:	1f 90       	pop	r1
 538:	18 95       	reti

0000053a <Timer1_setCallBack>:
 53a:	90 93 77 01 	sts	0x0177, r25
 53e:	80 93 76 01 	sts	0x0176, r24
 542:	08 95       	ret

00000544 <Timer1_init>:
 544:	fc 01       	movw	r30, r24
 546:	25 81       	ldd	r18, Z+5	; 0x05
 548:	82 2f       	mov	r24, r18
 54a:	88 0f       	add	r24, r24
 54c:	88 70       	andi	r24, 0x08	; 8
 54e:	94 81       	ldd	r25, Z+4	; 0x04
 550:	89 2b       	or	r24, r25
 552:	8e bd       	out	0x2e, r24	; 46
 554:	8c e8       	ldi	r24, 0x8C	; 140
 556:	8f bd       	out	0x2f, r24	; 47
 558:	80 81       	ld	r24, Z
 55a:	91 81       	ldd	r25, Z+1	; 0x01
 55c:	9d bd       	out	0x2d, r25	; 45
 55e:	8c bd       	out	0x2c, r24	; 44
 560:	22 23       	and	r18, r18
 562:	21 f4       	brne	.+8      	; 0x56c <Timer1_init+0x28>
 564:	89 b7       	in	r24, 0x39	; 57
 566:	84 60       	ori	r24, 0x04	; 4
 568:	89 bf       	out	0x39, r24	; 57
 56a:	08 95       	ret
 56c:	24 30       	cpi	r18, 0x04	; 4
 56e:	39 f4       	brne	.+14     	; 0x57e <Timer1_init+0x3a>
 570:	82 81       	ldd	r24, Z+2	; 0x02
 572:	93 81       	ldd	r25, Z+3	; 0x03
 574:	9b bd       	out	0x2b, r25	; 43
 576:	8a bd       	out	0x2a, r24	; 42
 578:	89 b7       	in	r24, 0x39	; 57
 57a:	80 61       	ori	r24, 0x10	; 16
 57c:	89 bf       	out	0x39, r24	; 57
 57e:	08 95       	ret

00000580 <__vector_9>:
 580:	1f 92       	push	r1
 582:	0f 92       	push	r0
 584:	0f b6       	in	r0, 0x3f	; 63
 586:	0f 92       	push	r0
 588:	11 24       	eor	r1, r1
 58a:	2f 93       	push	r18
 58c:	3f 93       	push	r19
 58e:	4f 93       	push	r20
 590:	5f 93       	push	r21
 592:	6f 93       	push	r22
 594:	7f 93       	push	r23
 596:	8f 93       	push	r24
 598:	9f 93       	push	r25
 59a:	af 93       	push	r26
 59c:	bf 93       	push	r27
 59e:	ef 93       	push	r30
 5a0:	ff 93       	push	r31
 5a2:	e0 91 76 01 	lds	r30, 0x0176
 5a6:	f0 91 77 01 	lds	r31, 0x0177
 5aa:	30 97       	sbiw	r30, 0x00	; 0
 5ac:	09 f0       	breq	.+2      	; 0x5b0 <__vector_9+0x30>
 5ae:	09 95       	icall
 5b0:	ff 91       	pop	r31
 5b2:	ef 91       	pop	r30
 5b4:	bf 91       	pop	r27
 5b6:	af 91       	pop	r26
 5b8:	9f 91       	pop	r25
 5ba:	8f 91       	pop	r24
 5bc:	7f 91       	pop	r23
 5be:	6f 91       	pop	r22
 5c0:	5f 91       	pop	r21
 5c2:	4f 91       	pop	r20
 5c4:	3f 91       	pop	r19
 5c6:	2f 91       	pop	r18
 5c8:	0f 90       	pop	r0
 5ca:	0f be       	out	0x3f, r0	; 63
 5cc:	0f 90       	pop	r0
 5ce:	1f 90       	pop	r1
 5d0:	18 95       	reti

000005d2 <Timer1_deInit>:
 5d2:	1d bc       	out	0x2d, r1	; 45
 5d4:	1c bc       	out	0x2c, r1	; 44
 5d6:	1b bc       	out	0x2b, r1	; 43
 5d8:	1a bc       	out	0x2a, r1	; 42
 5da:	1e bc       	out	0x2e, r1	; 46
 5dc:	1e bc       	out	0x2e, r1	; 46
 5de:	08 95       	ret

000005e0 <GPIO_setupPinDirection>:
 5e0:	68 30       	cpi	r22, 0x08	; 8
 5e2:	08 f0       	brcs	.+2      	; 0x5e6 <GPIO_setupPinDirection+0x6>
 5e4:	70 c0       	rjmp	.+224    	; 0x6c6 <GPIO_setupPinDirection+0xe6>
 5e6:	84 30       	cpi	r24, 0x04	; 4
 5e8:	08 f0       	brcs	.+2      	; 0x5ec <GPIO_setupPinDirection+0xc>
 5ea:	6d c0       	rjmp	.+218    	; 0x6c6 <GPIO_setupPinDirection+0xe6>
 5ec:	81 30       	cpi	r24, 0x01	; 1
 5ee:	09 f1       	breq	.+66     	; 0x632 <GPIO_setupPinDirection+0x52>
 5f0:	81 30       	cpi	r24, 0x01	; 1
 5f2:	30 f0       	brcs	.+12     	; 0x600 <GPIO_setupPinDirection+0x20>
 5f4:	82 30       	cpi	r24, 0x02	; 2
 5f6:	b1 f1       	breq	.+108    	; 0x664 <GPIO_setupPinDirection+0x84>
 5f8:	83 30       	cpi	r24, 0x03	; 3
 5fa:	09 f0       	breq	.+2      	; 0x5fe <GPIO_setupPinDirection+0x1e>
 5fc:	64 c0       	rjmp	.+200    	; 0x6c6 <GPIO_setupPinDirection+0xe6>
 5fe:	4b c0       	rjmp	.+150    	; 0x696 <GPIO_setupPinDirection+0xb6>
 600:	41 30       	cpi	r20, 0x01	; 1
 602:	59 f4       	brne	.+22     	; 0x61a <GPIO_setupPinDirection+0x3a>
 604:	2a b3       	in	r18, 0x1a	; 26
 606:	81 e0       	ldi	r24, 0x01	; 1
 608:	90 e0       	ldi	r25, 0x00	; 0
 60a:	02 c0       	rjmp	.+4      	; 0x610 <GPIO_setupPinDirection+0x30>
 60c:	88 0f       	add	r24, r24
 60e:	99 1f       	adc	r25, r25
 610:	6a 95       	dec	r22
 612:	e2 f7       	brpl	.-8      	; 0x60c <GPIO_setupPinDirection+0x2c>
 614:	28 2b       	or	r18, r24
 616:	2a bb       	out	0x1a, r18	; 26
 618:	08 95       	ret
 61a:	2a b3       	in	r18, 0x1a	; 26
 61c:	81 e0       	ldi	r24, 0x01	; 1
 61e:	90 e0       	ldi	r25, 0x00	; 0
 620:	02 c0       	rjmp	.+4      	; 0x626 <GPIO_setupPinDirection+0x46>
 622:	88 0f       	add	r24, r24
 624:	99 1f       	adc	r25, r25
 626:	6a 95       	dec	r22
 628:	e2 f7       	brpl	.-8      	; 0x622 <GPIO_setupPinDirection+0x42>
 62a:	80 95       	com	r24
 62c:	82 23       	and	r24, r18
 62e:	8a bb       	out	0x1a, r24	; 26
 630:	08 95       	ret
 632:	41 30       	cpi	r20, 0x01	; 1
 634:	59 f4       	brne	.+22     	; 0x64c <GPIO_setupPinDirection+0x6c>
 636:	27 b3       	in	r18, 0x17	; 23
 638:	81 e0       	ldi	r24, 0x01	; 1
 63a:	90 e0       	ldi	r25, 0x00	; 0
 63c:	02 c0       	rjmp	.+4      	; 0x642 <GPIO_setupPinDirection+0x62>
 63e:	88 0f       	add	r24, r24
 640:	99 1f       	adc	r25, r25
 642:	6a 95       	dec	r22
 644:	e2 f7       	brpl	.-8      	; 0x63e <GPIO_setupPinDirection+0x5e>
 646:	28 2b       	or	r18, r24
 648:	27 bb       	out	0x17, r18	; 23
 64a:	08 95       	ret
 64c:	27 b3       	in	r18, 0x17	; 23
 64e:	81 e0       	ldi	r24, 0x01	; 1
 650:	90 e0       	ldi	r25, 0x00	; 0
 652:	02 c0       	rjmp	.+4      	; 0x658 <GPIO_setupPinDirection+0x78>
 654:	88 0f       	add	r24, r24
 656:	99 1f       	adc	r25, r25
 658:	6a 95       	dec	r22
 65a:	e2 f7       	brpl	.-8      	; 0x654 <GPIO_setupPinDirection+0x74>
 65c:	80 95       	com	r24
 65e:	82 23       	and	r24, r18
 660:	87 bb       	out	0x17, r24	; 23
 662:	08 95       	ret
 664:	41 30       	cpi	r20, 0x01	; 1
 666:	59 f4       	brne	.+22     	; 0x67e <GPIO_setupPinDirection+0x9e>
 668:	24 b3       	in	r18, 0x14	; 20
 66a:	81 e0       	ldi	r24, 0x01	; 1
 66c:	90 e0       	ldi	r25, 0x00	; 0
 66e:	02 c0       	rjmp	.+4      	; 0x674 <GPIO_setupPinDirection+0x94>
 670:	88 0f       	add	r24, r24
 672:	99 1f       	adc	r25, r25
 674:	6a 95       	dec	r22
 676:	e2 f7       	brpl	.-8      	; 0x670 <GPIO_setupPinDirection+0x90>
 678:	28 2b       	or	r18, r24
 67a:	24 bb       	out	0x14, r18	; 20
 67c:	08 95       	ret
 67e:	24 b3       	in	r18, 0x14	; 20
 680:	81 e0       	ldi	r24, 0x01	; 1
 682:	90 e0       	ldi	r25, 0x00	; 0
 684:	02 c0       	rjmp	.+4      	; 0x68a <GPIO_setupPinDirection+0xaa>
 686:	88 0f       	add	r24, r24
 688:	99 1f       	adc	r25, r25
 68a:	6a 95       	dec	r22
 68c:	e2 f7       	brpl	.-8      	; 0x686 <GPIO_setupPinDirection+0xa6>
 68e:	80 95       	com	r24
 690:	82 23       	and	r24, r18
 692:	84 bb       	out	0x14, r24	; 20
 694:	08 95       	ret
 696:	41 30       	cpi	r20, 0x01	; 1
 698:	59 f4       	brne	.+22     	; 0x6b0 <GPIO_setupPinDirection+0xd0>
 69a:	21 b3       	in	r18, 0x11	; 17
 69c:	81 e0       	ldi	r24, 0x01	; 1
 69e:	90 e0       	ldi	r25, 0x00	; 0
 6a0:	02 c0       	rjmp	.+4      	; 0x6a6 <GPIO_setupPinDirection+0xc6>
 6a2:	88 0f       	add	r24, r24
 6a4:	99 1f       	adc	r25, r25
 6a6:	6a 95       	dec	r22
 6a8:	e2 f7       	brpl	.-8      	; 0x6a2 <GPIO_setupPinDirection+0xc2>
 6aa:	28 2b       	or	r18, r24
 6ac:	21 bb       	out	0x11, r18	; 17
 6ae:	08 95       	ret
 6b0:	21 b3       	in	r18, 0x11	; 17
 6b2:	81 e0       	ldi	r24, 0x01	; 1
 6b4:	90 e0       	ldi	r25, 0x00	; 0
 6b6:	02 c0       	rjmp	.+4      	; 0x6bc <GPIO_setupPinDirection+0xdc>
 6b8:	88 0f       	add	r24, r24
 6ba:	99 1f       	adc	r25, r25
 6bc:	6a 95       	dec	r22
 6be:	e2 f7       	brpl	.-8      	; 0x6b8 <GPIO_setupPinDirection+0xd8>
 6c0:	80 95       	com	r24
 6c2:	82 23       	and	r24, r18
 6c4:	81 bb       	out	0x11, r24	; 17
 6c6:	08 95       	ret

000006c8 <GPIO_writePin>:
 6c8:	68 30       	cpi	r22, 0x08	; 8
 6ca:	08 f0       	brcs	.+2      	; 0x6ce <GPIO_writePin+0x6>
 6cc:	70 c0       	rjmp	.+224    	; 0x7ae <GPIO_writePin+0xe6>
 6ce:	84 30       	cpi	r24, 0x04	; 4
 6d0:	08 f0       	brcs	.+2      	; 0x6d4 <GPIO_writePin+0xc>
 6d2:	6d c0       	rjmp	.+218    	; 0x7ae <GPIO_writePin+0xe6>
 6d4:	81 30       	cpi	r24, 0x01	; 1
 6d6:	09 f1       	breq	.+66     	; 0x71a <GPIO_writePin+0x52>
 6d8:	81 30       	cpi	r24, 0x01	; 1
 6da:	30 f0       	brcs	.+12     	; 0x6e8 <GPIO_writePin+0x20>
 6dc:	82 30       	cpi	r24, 0x02	; 2
 6de:	b1 f1       	breq	.+108    	; 0x74c <GPIO_writePin+0x84>
 6e0:	83 30       	cpi	r24, 0x03	; 3
 6e2:	09 f0       	breq	.+2      	; 0x6e6 <GPIO_writePin+0x1e>
 6e4:	64 c0       	rjmp	.+200    	; 0x7ae <GPIO_writePin+0xe6>
 6e6:	4b c0       	rjmp	.+150    	; 0x77e <GPIO_writePin+0xb6>
 6e8:	41 30       	cpi	r20, 0x01	; 1
 6ea:	59 f4       	brne	.+22     	; 0x702 <GPIO_writePin+0x3a>
 6ec:	2b b3       	in	r18, 0x1b	; 27
 6ee:	81 e0       	ldi	r24, 0x01	; 1
 6f0:	90 e0       	ldi	r25, 0x00	; 0
 6f2:	02 c0       	rjmp	.+4      	; 0x6f8 <GPIO_writePin+0x30>
 6f4:	88 0f       	add	r24, r24
 6f6:	99 1f       	adc	r25, r25
 6f8:	6a 95       	dec	r22
 6fa:	e2 f7       	brpl	.-8      	; 0x6f4 <GPIO_writePin+0x2c>
 6fc:	28 2b       	or	r18, r24
 6fe:	2b bb       	out	0x1b, r18	; 27
 700:	08 95       	ret
 702:	2b b3       	in	r18, 0x1b	; 27
 704:	81 e0       	ldi	r24, 0x01	; 1
 706:	90 e0       	ldi	r25, 0x00	; 0
 708:	02 c0       	rjmp	.+4      	; 0x70e <GPIO_writePin+0x46>
 70a:	88 0f       	add	r24, r24
 70c:	99 1f       	adc	r25, r25
 70e:	6a 95       	dec	r22
 710:	e2 f7       	brpl	.-8      	; 0x70a <GPIO_writePin+0x42>
 712:	80 95       	com	r24
 714:	82 23       	and	r24, r18
 716:	8b bb       	out	0x1b, r24	; 27
 718:	08 95       	ret
 71a:	41 30       	cpi	r20, 0x01	; 1
 71c:	59 f4       	brne	.+22     	; 0x734 <GPIO_writePin+0x6c>
 71e:	28 b3       	in	r18, 0x18	; 24
 720:	81 e0       	ldi	r24, 0x01	; 1
 722:	90 e0       	ldi	r25, 0x00	; 0
 724:	02 c0       	rjmp	.+4      	; 0x72a <GPIO_writePin+0x62>
 726:	88 0f       	add	r24, r24
 728:	99 1f       	adc	r25, r25
 72a:	6a 95       	dec	r22
 72c:	e2 f7       	brpl	.-8      	; 0x726 <GPIO_writePin+0x5e>
 72e:	28 2b       	or	r18, r24
 730:	28 bb       	out	0x18, r18	; 24
 732:	08 95       	ret
 734:	28 b3       	in	r18, 0x18	; 24
 736:	81 e0       	ldi	r24, 0x01	; 1
 738:	90 e0       	ldi	r25, 0x00	; 0
 73a:	02 c0       	rjmp	.+4      	; 0x740 <GPIO_writePin+0x78>
 73c:	88 0f       	add	r24, r24
 73e:	99 1f       	adc	r25, r25
 740:	6a 95       	dec	r22
 742:	e2 f7       	brpl	.-8      	; 0x73c <GPIO_writePin+0x74>
 744:	80 95       	com	r24
 746:	82 23       	and	r24, r18
 748:	88 bb       	out	0x18, r24	; 24
 74a:	08 95       	ret
 74c:	41 30       	cpi	r20, 0x01	; 1
 74e:	59 f4       	brne	.+22     	; 0x766 <GPIO_writePin+0x9e>
 750:	25 b3       	in	r18, 0x15	; 21
 752:	81 e0       	ldi	r24, 0x01	; 1
 754:	90 e0       	ldi	r25, 0x00	; 0
 756:	02 c0       	rjmp	.+4      	; 0x75c <GPIO_writePin+0x94>
 758:	88 0f       	add	r24, r24
 75a:	99 1f       	adc	r25, r25
 75c:	6a 95       	dec	r22
 75e:	e2 f7       	brpl	.-8      	; 0x758 <GPIO_writePin+0x90>
 760:	28 2b       	or	r18, r24
 762:	25 bb       	out	0x15, r18	; 21
 764:	08 95       	ret
 766:	25 b3       	in	r18, 0x15	; 21
 768:	81 e0       	ldi	r24, 0x01	; 1
 76a:	90 e0       	ldi	r25, 0x00	; 0
 76c:	02 c0       	rjmp	.+4      	; 0x772 <GPIO_writePin+0xaa>
 76e:	88 0f       	add	r24, r24
 770:	99 1f       	adc	r25, r25
 772:	6a 95       	dec	r22
 774:	e2 f7       	brpl	.-8      	; 0x76e <GPIO_writePin+0xa6>
 776:	80 95       	com	r24
 778:	82 23       	and	r24, r18
 77a:	85 bb       	out	0x15, r24	; 21
 77c:	08 95       	ret
 77e:	41 30       	cpi	r20, 0x01	; 1
 780:	59 f4       	brne	.+22     	; 0x798 <GPIO_writePin+0xd0>
 782:	22 b3       	in	r18, 0x12	; 18
 784:	81 e0       	ldi	r24, 0x01	; 1
 786:	90 e0       	ldi	r25, 0x00	; 0
 788:	02 c0       	rjmp	.+4      	; 0x78e <GPIO_writePin+0xc6>
 78a:	88 0f       	add	r24, r24
 78c:	99 1f       	adc	r25, r25
 78e:	6a 95       	dec	r22
 790:	e2 f7       	brpl	.-8      	; 0x78a <GPIO_writePin+0xc2>
 792:	28 2b       	or	r18, r24
 794:	22 bb       	out	0x12, r18	; 18
 796:	08 95       	ret
 798:	22 b3       	in	r18, 0x12	; 18
 79a:	81 e0       	ldi	r24, 0x01	; 1
 79c:	90 e0       	ldi	r25, 0x00	; 0
 79e:	02 c0       	rjmp	.+4      	; 0x7a4 <GPIO_writePin+0xdc>
 7a0:	88 0f       	add	r24, r24
 7a2:	99 1f       	adc	r25, r25
 7a4:	6a 95       	dec	r22
 7a6:	e2 f7       	brpl	.-8      	; 0x7a0 <GPIO_writePin+0xd8>
 7a8:	80 95       	com	r24
 7aa:	82 23       	and	r24, r18
 7ac:	82 bb       	out	0x12, r24	; 18
 7ae:	08 95       	ret

000007b0 <GPIO_readPin>:
 7b0:	68 30       	cpi	r22, 0x08	; 8
 7b2:	d0 f4       	brcc	.+52     	; 0x7e8 <GPIO_readPin+0x38>
 7b4:	84 30       	cpi	r24, 0x04	; 4
 7b6:	c0 f4       	brcc	.+48     	; 0x7e8 <GPIO_readPin+0x38>
 7b8:	81 30       	cpi	r24, 0x01	; 1
 7ba:	49 f0       	breq	.+18     	; 0x7ce <GPIO_readPin+0x1e>
 7bc:	81 30       	cpi	r24, 0x01	; 1
 7be:	28 f0       	brcs	.+10     	; 0x7ca <GPIO_readPin+0x1a>
 7c0:	82 30       	cpi	r24, 0x02	; 2
 7c2:	39 f0       	breq	.+14     	; 0x7d2 <GPIO_readPin+0x22>
 7c4:	83 30       	cpi	r24, 0x03	; 3
 7c6:	81 f4       	brne	.+32     	; 0x7e8 <GPIO_readPin+0x38>
 7c8:	06 c0       	rjmp	.+12     	; 0x7d6 <GPIO_readPin+0x26>
 7ca:	89 b3       	in	r24, 0x19	; 25
 7cc:	05 c0       	rjmp	.+10     	; 0x7d8 <GPIO_readPin+0x28>
 7ce:	86 b3       	in	r24, 0x16	; 22
 7d0:	03 c0       	rjmp	.+6      	; 0x7d8 <GPIO_readPin+0x28>
 7d2:	83 b3       	in	r24, 0x13	; 19
 7d4:	01 c0       	rjmp	.+2      	; 0x7d8 <GPIO_readPin+0x28>
 7d6:	80 b3       	in	r24, 0x10	; 16
 7d8:	90 e0       	ldi	r25, 0x00	; 0
 7da:	02 c0       	rjmp	.+4      	; 0x7e0 <GPIO_readPin+0x30>
 7dc:	95 95       	asr	r25
 7de:	87 95       	ror	r24
 7e0:	6a 95       	dec	r22
 7e2:	e2 f7       	brpl	.-8      	; 0x7dc <GPIO_readPin+0x2c>
 7e4:	81 70       	andi	r24, 0x01	; 1
 7e6:	08 95       	ret
 7e8:	80 e0       	ldi	r24, 0x00	; 0
 7ea:	08 95       	ret

000007ec <GPIO_setupPortDirection>:
 7ec:	84 30       	cpi	r24, 0x04	; 4
 7ee:	80 f4       	brcc	.+32     	; 0x810 <GPIO_setupPortDirection+0x24>
 7f0:	81 30       	cpi	r24, 0x01	; 1
 7f2:	49 f0       	breq	.+18     	; 0x806 <GPIO_setupPortDirection+0x1a>
 7f4:	81 30       	cpi	r24, 0x01	; 1
 7f6:	28 f0       	brcs	.+10     	; 0x802 <GPIO_setupPortDirection+0x16>
 7f8:	82 30       	cpi	r24, 0x02	; 2
 7fa:	39 f0       	breq	.+14     	; 0x80a <GPIO_setupPortDirection+0x1e>
 7fc:	83 30       	cpi	r24, 0x03	; 3
 7fe:	41 f4       	brne	.+16     	; 0x810 <GPIO_setupPortDirection+0x24>
 800:	06 c0       	rjmp	.+12     	; 0x80e <GPIO_setupPortDirection+0x22>
 802:	6a bb       	out	0x1a, r22	; 26
 804:	08 95       	ret
 806:	67 bb       	out	0x17, r22	; 23
 808:	08 95       	ret
 80a:	64 bb       	out	0x14, r22	; 20
 80c:	08 95       	ret
 80e:	61 bb       	out	0x11, r22	; 17
 810:	08 95       	ret

00000812 <GPIO_writePort>:
 812:	84 30       	cpi	r24, 0x04	; 4
 814:	80 f4       	brcc	.+32     	; 0x836 <GPIO_writePort+0x24>
 816:	81 30       	cpi	r24, 0x01	; 1
 818:	49 f0       	breq	.+18     	; 0x82c <GPIO_writePort+0x1a>
 81a:	81 30       	cpi	r24, 0x01	; 1
 81c:	28 f0       	brcs	.+10     	; 0x828 <GPIO_writePort+0x16>
 81e:	82 30       	cpi	r24, 0x02	; 2
 820:	39 f0       	breq	.+14     	; 0x830 <GPIO_writePort+0x1e>
 822:	83 30       	cpi	r24, 0x03	; 3
 824:	41 f4       	brne	.+16     	; 0x836 <GPIO_writePort+0x24>
 826:	06 c0       	rjmp	.+12     	; 0x834 <GPIO_writePort+0x22>
 828:	6b bb       	out	0x1b, r22	; 27
 82a:	08 95       	ret
 82c:	68 bb       	out	0x18, r22	; 24
 82e:	08 95       	ret
 830:	65 bb       	out	0x15, r22	; 21
 832:	08 95       	ret
 834:	62 bb       	out	0x12, r22	; 18
 836:	08 95       	ret

00000838 <GPIO_readPort>:
 838:	84 30       	cpi	r24, 0x04	; 4
 83a:	88 f4       	brcc	.+34     	; 0x85e <GPIO_readPort+0x26>
 83c:	81 30       	cpi	r24, 0x01	; 1
 83e:	49 f0       	breq	.+18     	; 0x852 <GPIO_readPort+0x1a>
 840:	81 30       	cpi	r24, 0x01	; 1
 842:	28 f0       	brcs	.+10     	; 0x84e <GPIO_readPort+0x16>
 844:	82 30       	cpi	r24, 0x02	; 2
 846:	39 f0       	breq	.+14     	; 0x856 <GPIO_readPort+0x1e>
 848:	83 30       	cpi	r24, 0x03	; 3
 84a:	49 f4       	brne	.+18     	; 0x85e <GPIO_readPort+0x26>
 84c:	06 c0       	rjmp	.+12     	; 0x85a <GPIO_readPort+0x22>
 84e:	89 b3       	in	r24, 0x19	; 25
 850:	08 95       	ret
 852:	86 b3       	in	r24, 0x16	; 22
 854:	08 95       	ret
 856:	83 b3       	in	r24, 0x13	; 19
 858:	08 95       	ret
 85a:	80 b3       	in	r24, 0x10	; 16
 85c:	08 95       	ret
 85e:	80 e0       	ldi	r24, 0x00	; 0
 860:	08 95       	ret

00000862 <KEYPAD_getPressedKey>:
 862:	ef 92       	push	r14
 864:	ff 92       	push	r15
 866:	0f 93       	push	r16
 868:	1f 93       	push	r17
 86a:	cf 93       	push	r28
 86c:	df 93       	push	r29
 86e:	81 e0       	ldi	r24, 0x01	; 1
 870:	64 e0       	ldi	r22, 0x04	; 4
 872:	40 e0       	ldi	r20, 0x00	; 0
 874:	0e 94 f0 02 	call	0x5e0	; 0x5e0 <GPIO_setupPinDirection>
 878:	81 e0       	ldi	r24, 0x01	; 1
 87a:	65 e0       	ldi	r22, 0x05	; 5
 87c:	40 e0       	ldi	r20, 0x00	; 0
 87e:	0e 94 f0 02 	call	0x5e0	; 0x5e0 <GPIO_setupPinDirection>
 882:	81 e0       	ldi	r24, 0x01	; 1
 884:	66 e0       	ldi	r22, 0x06	; 6
 886:	40 e0       	ldi	r20, 0x00	; 0
 888:	0e 94 f0 02 	call	0x5e0	; 0x5e0 <GPIO_setupPinDirection>
 88c:	81 e0       	ldi	r24, 0x01	; 1
 88e:	67 e0       	ldi	r22, 0x07	; 7
 890:	40 e0       	ldi	r20, 0x00	; 0
 892:	0e 94 f0 02 	call	0x5e0	; 0x5e0 <GPIO_setupPinDirection>
 896:	83 e0       	ldi	r24, 0x03	; 3
 898:	62 e0       	ldi	r22, 0x02	; 2
 89a:	40 e0       	ldi	r20, 0x00	; 0
 89c:	0e 94 f0 02 	call	0x5e0	; 0x5e0 <GPIO_setupPinDirection>
 8a0:	83 e0       	ldi	r24, 0x03	; 3
 8a2:	63 e0       	ldi	r22, 0x03	; 3
 8a4:	40 e0       	ldi	r20, 0x00	; 0
 8a6:	0e 94 f0 02 	call	0x5e0	; 0x5e0 <GPIO_setupPinDirection>
 8aa:	83 e0       	ldi	r24, 0x03	; 3
 8ac:	64 e0       	ldi	r22, 0x04	; 4
 8ae:	40 e0       	ldi	r20, 0x00	; 0
 8b0:	0e 94 f0 02 	call	0x5e0	; 0x5e0 <GPIO_setupPinDirection>
 8b4:	83 e0       	ldi	r24, 0x03	; 3
 8b6:	65 e0       	ldi	r22, 0x05	; 5
 8b8:	40 e0       	ldi	r20, 0x00	; 0
 8ba:	0e 94 f0 02 	call	0x5e0	; 0x5e0 <GPIO_setupPinDirection>
 8be:	ee 24       	eor	r14, r14
 8c0:	00 e0       	ldi	r16, 0x00	; 0
 8c2:	c0 e1       	ldi	r28, 0x10	; 16
 8c4:	d7 e2       	ldi	r29, 0x27	; 39
 8c6:	01 c0       	rjmp	.+2      	; 0x8ca <KEYPAD_getPressedKey+0x68>
 8c8:	e0 2e       	mov	r14, r16
 8ca:	84 e0       	ldi	r24, 0x04	; 4
 8cc:	f8 2e       	mov	r15, r24
 8ce:	fe 0c       	add	r15, r14
 8d0:	81 e0       	ldi	r24, 0x01	; 1
 8d2:	6f 2d       	mov	r22, r15
 8d4:	41 e0       	ldi	r20, 0x01	; 1
 8d6:	0e 94 f0 02 	call	0x5e0	; 0x5e0 <GPIO_setupPinDirection>
 8da:	81 e0       	ldi	r24, 0x01	; 1
 8dc:	6f 2d       	mov	r22, r15
 8de:	40 e0       	ldi	r20, 0x00	; 0
 8e0:	0e 94 64 03 	call	0x6c8	; 0x6c8 <GPIO_writePin>
 8e4:	10 e0       	ldi	r17, 0x00	; 0
 8e6:	1e 5f       	subi	r17, 0xFE	; 254
 8e8:	83 e0       	ldi	r24, 0x03	; 3
 8ea:	61 2f       	mov	r22, r17
 8ec:	0e 94 d8 03 	call	0x7b0	; 0x7b0 <GPIO_readPin>
 8f0:	61 2f       	mov	r22, r17
 8f2:	61 50       	subi	r22, 0x01	; 1
 8f4:	88 23       	and	r24, r24
 8f6:	09 f0       	breq	.+2      	; 0x8fa <KEYPAD_getPressedKey+0x98>
 8f8:	4c c0       	rjmp	.+152    	; 0x992 <KEYPAD_getPressedKey+0x130>
 8fa:	80 2f       	mov	r24, r16
 8fc:	88 0f       	add	r24, r24
 8fe:	88 0f       	add	r24, r24
 900:	86 0f       	add	r24, r22
 902:	88 30       	cpi	r24, 0x08	; 8
 904:	81 f1       	breq	.+96     	; 0x966 <KEYPAD_getPressedKey+0x104>
 906:	89 30       	cpi	r24, 0x09	; 9
 908:	80 f4       	brcc	.+32     	; 0x92a <KEYPAD_getPressedKey+0xc8>
 90a:	84 30       	cpi	r24, 0x04	; 4
 90c:	21 f1       	breq	.+72     	; 0x956 <KEYPAD_getPressedKey+0xf4>
 90e:	85 30       	cpi	r24, 0x05	; 5
 910:	38 f4       	brcc	.+14     	; 0x920 <KEYPAD_getPressedKey+0xbe>
 912:	82 30       	cpi	r24, 0x02	; 2
 914:	d1 f0       	breq	.+52     	; 0x94a <KEYPAD_getPressedKey+0xe8>
 916:	83 30       	cpi	r24, 0x03	; 3
 918:	e0 f4       	brcc	.+56     	; 0x952 <KEYPAD_getPressedKey+0xf0>
 91a:	81 30       	cpi	r24, 0x01	; 1
 91c:	99 f5       	brne	.+102    	; 0x984 <KEYPAD_getPressedKey+0x122>
 91e:	17 c0       	rjmp	.+46     	; 0x94e <KEYPAD_getPressedKey+0xec>
 920:	86 30       	cpi	r24, 0x06	; 6
 922:	e9 f0       	breq	.+58     	; 0x95e <KEYPAD_getPressedKey+0xfc>
 924:	87 30       	cpi	r24, 0x07	; 7
 926:	e8 f4       	brcc	.+58     	; 0x962 <KEYPAD_getPressedKey+0x100>
 928:	18 c0       	rjmp	.+48     	; 0x95a <KEYPAD_getPressedKey+0xf8>
 92a:	8c 30       	cpi	r24, 0x0C	; 12
 92c:	21 f1       	breq	.+72     	; 0x976 <KEYPAD_getPressedKey+0x114>
 92e:	8d 30       	cpi	r24, 0x0D	; 13
 930:	28 f4       	brcc	.+10     	; 0x93c <KEYPAD_getPressedKey+0xda>
 932:	8a 30       	cpi	r24, 0x0A	; 10
 934:	e1 f0       	breq	.+56     	; 0x96e <KEYPAD_getPressedKey+0x10c>
 936:	8b 30       	cpi	r24, 0x0B	; 11
 938:	e0 f4       	brcc	.+56     	; 0x972 <KEYPAD_getPressedKey+0x110>
 93a:	17 c0       	rjmp	.+46     	; 0x96a <KEYPAD_getPressedKey+0x108>
 93c:	8f 30       	cpi	r24, 0x0F	; 15
 93e:	f9 f0       	breq	.+62     	; 0x97e <KEYPAD_getPressedKey+0x11c>
 940:	80 31       	cpi	r24, 0x10	; 16
 942:	f9 f0       	breq	.+62     	; 0x982 <KEYPAD_getPressedKey+0x120>
 944:	8e 30       	cpi	r24, 0x0E	; 14
 946:	f1 f4       	brne	.+60     	; 0x984 <KEYPAD_getPressedKey+0x122>
 948:	18 c0       	rjmp	.+48     	; 0x97a <KEYPAD_getPressedKey+0x118>
 94a:	88 e0       	ldi	r24, 0x08	; 8
 94c:	1b c0       	rjmp	.+54     	; 0x984 <KEYPAD_getPressedKey+0x122>
 94e:	87 e0       	ldi	r24, 0x07	; 7
 950:	19 c0       	rjmp	.+50     	; 0x984 <KEYPAD_getPressedKey+0x122>
 952:	89 e0       	ldi	r24, 0x09	; 9
 954:	17 c0       	rjmp	.+46     	; 0x984 <KEYPAD_getPressedKey+0x122>
 956:	85 e2       	ldi	r24, 0x25	; 37
 958:	15 c0       	rjmp	.+42     	; 0x984 <KEYPAD_getPressedKey+0x122>
 95a:	84 e0       	ldi	r24, 0x04	; 4
 95c:	13 c0       	rjmp	.+38     	; 0x984 <KEYPAD_getPressedKey+0x122>
 95e:	85 e0       	ldi	r24, 0x05	; 5
 960:	11 c0       	rjmp	.+34     	; 0x984 <KEYPAD_getPressedKey+0x122>
 962:	86 e0       	ldi	r24, 0x06	; 6
 964:	0f c0       	rjmp	.+30     	; 0x984 <KEYPAD_getPressedKey+0x122>
 966:	8a e2       	ldi	r24, 0x2A	; 42
 968:	0d c0       	rjmp	.+26     	; 0x984 <KEYPAD_getPressedKey+0x122>
 96a:	81 e0       	ldi	r24, 0x01	; 1
 96c:	0b c0       	rjmp	.+22     	; 0x984 <KEYPAD_getPressedKey+0x122>
 96e:	82 e0       	ldi	r24, 0x02	; 2
 970:	09 c0       	rjmp	.+18     	; 0x984 <KEYPAD_getPressedKey+0x122>
 972:	83 e0       	ldi	r24, 0x03	; 3
 974:	07 c0       	rjmp	.+14     	; 0x984 <KEYPAD_getPressedKey+0x122>
 976:	8d e2       	ldi	r24, 0x2D	; 45
 978:	05 c0       	rjmp	.+10     	; 0x984 <KEYPAD_getPressedKey+0x122>
 97a:	80 e0       	ldi	r24, 0x00	; 0
 97c:	03 c0       	rjmp	.+6      	; 0x984 <KEYPAD_getPressedKey+0x122>
 97e:	8d e3       	ldi	r24, 0x3D	; 61
 980:	01 c0       	rjmp	.+2      	; 0x984 <KEYPAD_getPressedKey+0x122>
 982:	8b e2       	ldi	r24, 0x2B	; 43
 984:	df 91       	pop	r29
 986:	cf 91       	pop	r28
 988:	1f 91       	pop	r17
 98a:	0f 91       	pop	r16
 98c:	ff 90       	pop	r15
 98e:	ef 90       	pop	r14
 990:	08 95       	ret
 992:	16 2f       	mov	r17, r22
 994:	64 30       	cpi	r22, 0x04	; 4
 996:	09 f0       	breq	.+2      	; 0x99a <KEYPAD_getPressedKey+0x138>
 998:	a6 cf       	rjmp	.-180    	; 0x8e6 <KEYPAD_getPressedKey+0x84>
 99a:	81 e0       	ldi	r24, 0x01	; 1
 99c:	6f 2d       	mov	r22, r15
 99e:	40 e0       	ldi	r20, 0x00	; 0
 9a0:	0e 94 f0 02 	call	0x5e0	; 0x5e0 <GPIO_setupPinDirection>
 9a4:	ce 01       	movw	r24, r28
 9a6:	01 97       	sbiw	r24, 0x01	; 1
 9a8:	f1 f7       	brne	.-4      	; 0x9a6 <KEYPAD_getPressedKey+0x144>
 9aa:	0e 2d       	mov	r16, r14
 9ac:	0f 5f       	subi	r16, 0xFF	; 255
 9ae:	04 30       	cpi	r16, 0x04	; 4
 9b0:	08 f4       	brcc	.+2      	; 0x9b4 <KEYPAD_getPressedKey+0x152>
 9b2:	8a cf       	rjmp	.-236    	; 0x8c8 <KEYPAD_getPressedKey+0x66>
 9b4:	ee 24       	eor	r14, r14
 9b6:	00 e0       	ldi	r16, 0x00	; 0
 9b8:	88 cf       	rjmp	.-240    	; 0x8ca <KEYPAD_getPressedKey+0x68>

000009ba <LCD_displayCharacter>:
 9ba:	ff 92       	push	r15
 9bc:	0f 93       	push	r16
 9be:	1f 93       	push	r17
 9c0:	f8 2e       	mov	r15, r24
 9c2:	82 e0       	ldi	r24, 0x02	; 2
 9c4:	61 e0       	ldi	r22, 0x01	; 1
 9c6:	41 e0       	ldi	r20, 0x01	; 1
 9c8:	0e 94 64 03 	call	0x6c8	; 0x6c8 <GPIO_writePin>
 9cc:	00 ed       	ldi	r16, 0xD0	; 208
 9ce:	17 e0       	ldi	r17, 0x07	; 7
 9d0:	c8 01       	movw	r24, r16
 9d2:	01 97       	sbiw	r24, 0x01	; 1
 9d4:	f1 f7       	brne	.-4      	; 0x9d2 <LCD_displayCharacter+0x18>
 9d6:	82 e0       	ldi	r24, 0x02	; 2
 9d8:	60 e0       	ldi	r22, 0x00	; 0
 9da:	41 e0       	ldi	r20, 0x01	; 1
 9dc:	0e 94 64 03 	call	0x6c8	; 0x6c8 <GPIO_writePin>
 9e0:	c8 01       	movw	r24, r16
 9e2:	01 97       	sbiw	r24, 0x01	; 1
 9e4:	f1 f7       	brne	.-4      	; 0x9e2 <LCD_displayCharacter+0x28>
 9e6:	80 e0       	ldi	r24, 0x00	; 0
 9e8:	6f 2d       	mov	r22, r15
 9ea:	0e 94 09 04 	call	0x812	; 0x812 <GPIO_writePort>
 9ee:	c8 01       	movw	r24, r16
 9f0:	01 97       	sbiw	r24, 0x01	; 1
 9f2:	f1 f7       	brne	.-4      	; 0x9f0 <LCD_displayCharacter+0x36>
 9f4:	82 e0       	ldi	r24, 0x02	; 2
 9f6:	60 e0       	ldi	r22, 0x00	; 0
 9f8:	40 e0       	ldi	r20, 0x00	; 0
 9fa:	0e 94 64 03 	call	0x6c8	; 0x6c8 <GPIO_writePin>
 9fe:	c8 01       	movw	r24, r16
 a00:	01 97       	sbiw	r24, 0x01	; 1
 a02:	f1 f7       	brne	.-4      	; 0xa00 <LCD_displayCharacter+0x46>
 a04:	1f 91       	pop	r17
 a06:	0f 91       	pop	r16
 a08:	ff 90       	pop	r15
 a0a:	08 95       	ret

00000a0c <LCD_displayString>:
 a0c:	1f 93       	push	r17
 a0e:	cf 93       	push	r28
 a10:	df 93       	push	r29
 a12:	ec 01       	movw	r28, r24
 a14:	10 e0       	ldi	r17, 0x00	; 0
 a16:	03 c0       	rjmp	.+6      	; 0xa1e <LCD_displayString+0x12>
 a18:	0e 94 dd 04 	call	0x9ba	; 0x9ba <LCD_displayCharacter>
 a1c:	1f 5f       	subi	r17, 0xFF	; 255
 a1e:	fe 01       	movw	r30, r28
 a20:	e1 0f       	add	r30, r17
 a22:	f1 1d       	adc	r31, r1
 a24:	80 81       	ld	r24, Z
 a26:	88 23       	and	r24, r24
 a28:	b9 f7       	brne	.-18     	; 0xa18 <LCD_displayString+0xc>
 a2a:	df 91       	pop	r29
 a2c:	cf 91       	pop	r28
 a2e:	1f 91       	pop	r17
 a30:	08 95       	ret

00000a32 <LCD_intgerToString>:
 a32:	0f 93       	push	r16
 a34:	1f 93       	push	r17
 a36:	df 93       	push	r29
 a38:	cf 93       	push	r28
 a3a:	cd b7       	in	r28, 0x3d	; 61
 a3c:	de b7       	in	r29, 0x3e	; 62
 a3e:	60 97       	sbiw	r28, 0x10	; 16
 a40:	0f b6       	in	r0, 0x3f	; 63
 a42:	f8 94       	cli
 a44:	de bf       	out	0x3e, r29	; 62
 a46:	0f be       	out	0x3f, r0	; 63
 a48:	cd bf       	out	0x3d, r28	; 61
 a4a:	8e 01       	movw	r16, r28
 a4c:	0f 5f       	subi	r16, 0xFF	; 255
 a4e:	1f 4f       	sbci	r17, 0xFF	; 255
 a50:	b8 01       	movw	r22, r16
 a52:	4a e0       	ldi	r20, 0x0A	; 10
 a54:	50 e0       	ldi	r21, 0x00	; 0
 a56:	0e 94 27 06 	call	0xc4e	; 0xc4e <itoa>
 a5a:	c8 01       	movw	r24, r16
 a5c:	0e 94 06 05 	call	0xa0c	; 0xa0c <LCD_displayString>
 a60:	60 96       	adiw	r28, 0x10	; 16
 a62:	0f b6       	in	r0, 0x3f	; 63
 a64:	f8 94       	cli
 a66:	de bf       	out	0x3e, r29	; 62
 a68:	0f be       	out	0x3f, r0	; 63
 a6a:	cd bf       	out	0x3d, r28	; 61
 a6c:	cf 91       	pop	r28
 a6e:	df 91       	pop	r29
 a70:	1f 91       	pop	r17
 a72:	0f 91       	pop	r16
 a74:	08 95       	ret

00000a76 <LCD_sendCommand>:
 a76:	ff 92       	push	r15
 a78:	0f 93       	push	r16
 a7a:	1f 93       	push	r17
 a7c:	f8 2e       	mov	r15, r24
 a7e:	82 e0       	ldi	r24, 0x02	; 2
 a80:	61 e0       	ldi	r22, 0x01	; 1
 a82:	40 e0       	ldi	r20, 0x00	; 0
 a84:	0e 94 64 03 	call	0x6c8	; 0x6c8 <GPIO_writePin>
 a88:	00 ed       	ldi	r16, 0xD0	; 208
 a8a:	17 e0       	ldi	r17, 0x07	; 7
 a8c:	c8 01       	movw	r24, r16
 a8e:	01 97       	sbiw	r24, 0x01	; 1
 a90:	f1 f7       	brne	.-4      	; 0xa8e <LCD_sendCommand+0x18>
 a92:	82 e0       	ldi	r24, 0x02	; 2
 a94:	60 e0       	ldi	r22, 0x00	; 0
 a96:	41 e0       	ldi	r20, 0x01	; 1
 a98:	0e 94 64 03 	call	0x6c8	; 0x6c8 <GPIO_writePin>
 a9c:	c8 01       	movw	r24, r16
 a9e:	01 97       	sbiw	r24, 0x01	; 1
 aa0:	f1 f7       	brne	.-4      	; 0xa9e <LCD_sendCommand+0x28>
 aa2:	80 e0       	ldi	r24, 0x00	; 0
 aa4:	6f 2d       	mov	r22, r15
 aa6:	0e 94 09 04 	call	0x812	; 0x812 <GPIO_writePort>
 aaa:	c8 01       	movw	r24, r16
 aac:	01 97       	sbiw	r24, 0x01	; 1
 aae:	f1 f7       	brne	.-4      	; 0xaac <LCD_sendCommand+0x36>
 ab0:	82 e0       	ldi	r24, 0x02	; 2
 ab2:	60 e0       	ldi	r22, 0x00	; 0
 ab4:	40 e0       	ldi	r20, 0x00	; 0
 ab6:	0e 94 64 03 	call	0x6c8	; 0x6c8 <GPIO_writePin>
 aba:	c8 01       	movw	r24, r16
 abc:	01 97       	sbiw	r24, 0x01	; 1
 abe:	f1 f7       	brne	.-4      	; 0xabc <LCD_sendCommand+0x46>
 ac0:	1f 91       	pop	r17
 ac2:	0f 91       	pop	r16
 ac4:	ff 90       	pop	r15
 ac6:	08 95       	ret

00000ac8 <LCD_clearScreen>:
 ac8:	81 e0       	ldi	r24, 0x01	; 1
 aca:	0e 94 3b 05 	call	0xa76	; 0xa76 <LCD_sendCommand>
 ace:	08 95       	ret

00000ad0 <LCD_moveCursor>:
 ad0:	81 30       	cpi	r24, 0x01	; 1
 ad2:	39 f0       	breq	.+14     	; 0xae2 <LCD_moveCursor+0x12>
 ad4:	81 30       	cpi	r24, 0x01	; 1
 ad6:	50 f0       	brcs	.+20     	; 0xaec <LCD_moveCursor+0x1c>
 ad8:	82 30       	cpi	r24, 0x02	; 2
 ada:	29 f0       	breq	.+10     	; 0xae6 <LCD_moveCursor+0x16>
 adc:	83 30       	cpi	r24, 0x03	; 3
 ade:	31 f4       	brne	.+12     	; 0xaec <LCD_moveCursor+0x1c>
 ae0:	04 c0       	rjmp	.+8      	; 0xaea <LCD_moveCursor+0x1a>
 ae2:	60 5c       	subi	r22, 0xC0	; 192
 ae4:	03 c0       	rjmp	.+6      	; 0xaec <LCD_moveCursor+0x1c>
 ae6:	60 5f       	subi	r22, 0xF0	; 240
 ae8:	01 c0       	rjmp	.+2      	; 0xaec <LCD_moveCursor+0x1c>
 aea:	60 5b       	subi	r22, 0xB0	; 176
 aec:	86 2f       	mov	r24, r22
 aee:	80 68       	ori	r24, 0x80	; 128
 af0:	0e 94 3b 05 	call	0xa76	; 0xa76 <LCD_sendCommand>
 af4:	08 95       	ret

00000af6 <LCD_displayStringRowColumn>:
 af6:	0f 93       	push	r16
 af8:	1f 93       	push	r17
 afa:	8a 01       	movw	r16, r20
 afc:	0e 94 68 05 	call	0xad0	; 0xad0 <LCD_moveCursor>
 b00:	c8 01       	movw	r24, r16
 b02:	0e 94 06 05 	call	0xa0c	; 0xa0c <LCD_displayString>
 b06:	1f 91       	pop	r17
 b08:	0f 91       	pop	r16
 b0a:	08 95       	ret

00000b0c <LCD_init>:
 b0c:	82 e0       	ldi	r24, 0x02	; 2
 b0e:	61 e0       	ldi	r22, 0x01	; 1
 b10:	41 e0       	ldi	r20, 0x01	; 1
 b12:	0e 94 f0 02 	call	0x5e0	; 0x5e0 <GPIO_setupPinDirection>
 b16:	82 e0       	ldi	r24, 0x02	; 2
 b18:	60 e0       	ldi	r22, 0x00	; 0
 b1a:	41 e0       	ldi	r20, 0x01	; 1
 b1c:	0e 94 f0 02 	call	0x5e0	; 0x5e0 <GPIO_setupPinDirection>
 b20:	80 e4       	ldi	r24, 0x40	; 64
 b22:	9c e9       	ldi	r25, 0x9C	; 156
 b24:	01 97       	sbiw	r24, 0x01	; 1
 b26:	f1 f7       	brne	.-4      	; 0xb24 <LCD_init+0x18>
 b28:	80 e0       	ldi	r24, 0x00	; 0
 b2a:	6f ef       	ldi	r22, 0xFF	; 255
 b2c:	0e 94 f6 03 	call	0x7ec	; 0x7ec <GPIO_setupPortDirection>
 b30:	88 e3       	ldi	r24, 0x38	; 56
 b32:	0e 94 3b 05 	call	0xa76	; 0xa76 <LCD_sendCommand>
 b36:	8c e0       	ldi	r24, 0x0C	; 12
 b38:	0e 94 3b 05 	call	0xa76	; 0xa76 <LCD_sendCommand>
 b3c:	81 e0       	ldi	r24, 0x01	; 1
 b3e:	0e 94 3b 05 	call	0xa76	; 0xa76 <LCD_sendCommand>
 b42:	08 95       	ret

00000b44 <UART_init>:
 b44:	fc 01       	movw	r30, r24
 b46:	82 e0       	ldi	r24, 0x02	; 2
 b48:	8b b9       	out	0x0b, r24	; 11
 b4a:	88 e1       	ldi	r24, 0x18	; 24
 b4c:	8a b9       	out	0x0a, r24	; 10
 b4e:	9a b1       	in	r25, 0x0a	; 10
 b50:	22 81       	ldd	r18, Z+2	; 0x02
 b52:	82 2f       	mov	r24, r18
 b54:	84 70       	andi	r24, 0x04	; 4
 b56:	89 2b       	or	r24, r25
 b58:	8a b9       	out	0x0a, r24	; 10
 b5a:	44 81       	ldd	r20, Z+4	; 0x04
 b5c:	44 0f       	add	r20, r20
 b5e:	44 0f       	add	r20, r20
 b60:	44 0f       	add	r20, r20
 b62:	46 68       	ori	r20, 0x86	; 134
 b64:	83 81       	ldd	r24, Z+3	; 0x03
 b66:	90 e0       	ldi	r25, 0x00	; 0
 b68:	83 70       	andi	r24, 0x03	; 3
 b6a:	90 70       	andi	r25, 0x00	; 0
 b6c:	34 e0       	ldi	r19, 0x04	; 4
 b6e:	88 0f       	add	r24, r24
 b70:	99 1f       	adc	r25, r25
 b72:	3a 95       	dec	r19
 b74:	e1 f7       	brne	.-8      	; 0xb6e <UART_init+0x2a>
 b76:	48 2b       	or	r20, r24
 b78:	30 e0       	ldi	r19, 0x00	; 0
 b7a:	23 70       	andi	r18, 0x03	; 3
 b7c:	30 70       	andi	r19, 0x00	; 0
 b7e:	22 0f       	add	r18, r18
 b80:	33 1f       	adc	r19, r19
 b82:	42 2b       	or	r20, r18
 b84:	40 bd       	out	0x20, r20	; 32
 b86:	20 81       	ld	r18, Z
 b88:	31 81       	ldd	r19, Z+1	; 0x01
 b8a:	40 e0       	ldi	r20, 0x00	; 0
 b8c:	50 e0       	ldi	r21, 0x00	; 0
 b8e:	83 e0       	ldi	r24, 0x03	; 3
 b90:	22 0f       	add	r18, r18
 b92:	33 1f       	adc	r19, r19
 b94:	44 1f       	adc	r20, r20
 b96:	55 1f       	adc	r21, r21
 b98:	8a 95       	dec	r24
 b9a:	d1 f7       	brne	.-12     	; 0xb90 <UART_init+0x4c>
 b9c:	60 e0       	ldi	r22, 0x00	; 0
 b9e:	72 e1       	ldi	r23, 0x12	; 18
 ba0:	8a e7       	ldi	r24, 0x7A	; 122
 ba2:	90 e0       	ldi	r25, 0x00	; 0
 ba4:	0e 94 05 06 	call	0xc0a	; 0xc0a <__udivmodsi4>
 ba8:	21 50       	subi	r18, 0x01	; 1
 baa:	30 40       	sbci	r19, 0x00	; 0
 bac:	30 bd       	out	0x20, r19	; 32
 bae:	29 b9       	out	0x09, r18	; 9
 bb0:	08 95       	ret

00000bb2 <UART_sendByte>:
 bb2:	5d 9b       	sbis	0x0b, 5	; 11
 bb4:	fe cf       	rjmp	.-4      	; 0xbb2 <UART_sendByte>
 bb6:	8c b9       	out	0x0c, r24	; 12
 bb8:	08 95       	ret

00000bba <UART_receiveByte>:
 bba:	5f 9b       	sbis	0x0b, 7	; 11
 bbc:	fe cf       	rjmp	.-4      	; 0xbba <UART_receiveByte>
 bbe:	8c b1       	in	r24, 0x0c	; 12
 bc0:	08 95       	ret

00000bc2 <UART_sendString>:
 bc2:	20 e0       	ldi	r18, 0x00	; 0
 bc4:	04 c0       	rjmp	.+8      	; 0xbce <UART_sendString+0xc>
 bc6:	5d 9b       	sbis	0x0b, 5	; 11
 bc8:	fe cf       	rjmp	.-4      	; 0xbc6 <UART_sendString+0x4>
 bca:	2f 5f       	subi	r18, 0xFF	; 255
 bcc:	ec b9       	out	0x0c, r30	; 12
 bce:	fc 01       	movw	r30, r24
 bd0:	e2 0f       	add	r30, r18
 bd2:	f1 1d       	adc	r31, r1
 bd4:	e0 81       	ld	r30, Z
 bd6:	ee 23       	and	r30, r30
 bd8:	b1 f7       	brne	.-20     	; 0xbc6 <UART_sendString+0x4>
 bda:	08 95       	ret

00000bdc <UART_receiveString>:
 bdc:	dc 01       	movw	r26, r24
 bde:	5f 9b       	sbis	0x0b, 7	; 11
 be0:	fe cf       	rjmp	.-4      	; 0xbde <UART_receiveString+0x2>
 be2:	8c b1       	in	r24, 0x0c	; 12
 be4:	8c 93       	st	X, r24
 be6:	90 e0       	ldi	r25, 0x00	; 0
 be8:	08 c0       	rjmp	.+16     	; 0xbfa <UART_receiveString+0x1e>
 bea:	9f 5f       	subi	r25, 0xFF	; 255
 bec:	5f 9b       	sbis	0x0b, 7	; 11
 bee:	fe cf       	rjmp	.-4      	; 0xbec <UART_receiveString+0x10>
 bf0:	8c b1       	in	r24, 0x0c	; 12
 bf2:	fd 01       	movw	r30, r26
 bf4:	e9 0f       	add	r30, r25
 bf6:	f1 1d       	adc	r31, r1
 bf8:	80 83       	st	Z, r24
 bfa:	fd 01       	movw	r30, r26
 bfc:	e9 0f       	add	r30, r25
 bfe:	f1 1d       	adc	r31, r1
 c00:	80 81       	ld	r24, Z
 c02:	83 32       	cpi	r24, 0x23	; 35
 c04:	91 f7       	brne	.-28     	; 0xbea <UART_receiveString+0xe>
 c06:	10 82       	st	Z, r1
 c08:	08 95       	ret

00000c0a <__udivmodsi4>:
 c0a:	a1 e2       	ldi	r26, 0x21	; 33
 c0c:	1a 2e       	mov	r1, r26
 c0e:	aa 1b       	sub	r26, r26
 c10:	bb 1b       	sub	r27, r27
 c12:	fd 01       	movw	r30, r26
 c14:	0d c0       	rjmp	.+26     	; 0xc30 <__udivmodsi4_ep>

00000c16 <__udivmodsi4_loop>:
 c16:	aa 1f       	adc	r26, r26
 c18:	bb 1f       	adc	r27, r27
 c1a:	ee 1f       	adc	r30, r30
 c1c:	ff 1f       	adc	r31, r31
 c1e:	a2 17       	cp	r26, r18
 c20:	b3 07       	cpc	r27, r19
 c22:	e4 07       	cpc	r30, r20
 c24:	f5 07       	cpc	r31, r21
 c26:	20 f0       	brcs	.+8      	; 0xc30 <__udivmodsi4_ep>
 c28:	a2 1b       	sub	r26, r18
 c2a:	b3 0b       	sbc	r27, r19
 c2c:	e4 0b       	sbc	r30, r20
 c2e:	f5 0b       	sbc	r31, r21

00000c30 <__udivmodsi4_ep>:
 c30:	66 1f       	adc	r22, r22
 c32:	77 1f       	adc	r23, r23
 c34:	88 1f       	adc	r24, r24
 c36:	99 1f       	adc	r25, r25
 c38:	1a 94       	dec	r1
 c3a:	69 f7       	brne	.-38     	; 0xc16 <__udivmodsi4_loop>
 c3c:	60 95       	com	r22
 c3e:	70 95       	com	r23
 c40:	80 95       	com	r24
 c42:	90 95       	com	r25
 c44:	9b 01       	movw	r18, r22
 c46:	ac 01       	movw	r20, r24
 c48:	bd 01       	movw	r22, r26
 c4a:	cf 01       	movw	r24, r30
 c4c:	08 95       	ret

00000c4e <itoa>:
 c4e:	fb 01       	movw	r30, r22
 c50:	9f 01       	movw	r18, r30
 c52:	e8 94       	clt
 c54:	42 30       	cpi	r20, 0x02	; 2
 c56:	c4 f0       	brlt	.+48     	; 0xc88 <itoa+0x3a>
 c58:	45 32       	cpi	r20, 0x25	; 37
 c5a:	b4 f4       	brge	.+44     	; 0xc88 <itoa+0x3a>
 c5c:	4a 30       	cpi	r20, 0x0A	; 10
 c5e:	29 f4       	brne	.+10     	; 0xc6a <itoa+0x1c>
 c60:	97 fb       	bst	r25, 7
 c62:	1e f4       	brtc	.+6      	; 0xc6a <itoa+0x1c>
 c64:	90 95       	com	r25
 c66:	81 95       	neg	r24
 c68:	9f 4f       	sbci	r25, 0xFF	; 255
 c6a:	64 2f       	mov	r22, r20
 c6c:	77 27       	eor	r23, r23
 c6e:	0e 94 58 06 	call	0xcb0	; 0xcb0 <__udivmodhi4>
 c72:	80 5d       	subi	r24, 0xD0	; 208
 c74:	8a 33       	cpi	r24, 0x3A	; 58
 c76:	0c f0       	brlt	.+2      	; 0xc7a <itoa+0x2c>
 c78:	89 5d       	subi	r24, 0xD9	; 217
 c7a:	81 93       	st	Z+, r24
 c7c:	cb 01       	movw	r24, r22
 c7e:	00 97       	sbiw	r24, 0x00	; 0
 c80:	a1 f7       	brne	.-24     	; 0xc6a <itoa+0x1c>
 c82:	16 f4       	brtc	.+4      	; 0xc88 <itoa+0x3a>
 c84:	5d e2       	ldi	r21, 0x2D	; 45
 c86:	51 93       	st	Z+, r21
 c88:	10 82       	st	Z, r1
 c8a:	c9 01       	movw	r24, r18
 c8c:	0c 94 48 06 	jmp	0xc90	; 0xc90 <strrev>

00000c90 <strrev>:
 c90:	dc 01       	movw	r26, r24
 c92:	fc 01       	movw	r30, r24
 c94:	67 2f       	mov	r22, r23
 c96:	71 91       	ld	r23, Z+
 c98:	77 23       	and	r23, r23
 c9a:	e1 f7       	brne	.-8      	; 0xc94 <strrev+0x4>
 c9c:	32 97       	sbiw	r30, 0x02	; 2
 c9e:	04 c0       	rjmp	.+8      	; 0xca8 <strrev+0x18>
 ca0:	7c 91       	ld	r23, X
 ca2:	6d 93       	st	X+, r22
 ca4:	70 83       	st	Z, r23
 ca6:	62 91       	ld	r22, -Z
 ca8:	ae 17       	cp	r26, r30
 caa:	bf 07       	cpc	r27, r31
 cac:	c8 f3       	brcs	.-14     	; 0xca0 <strrev+0x10>
 cae:	08 95       	ret

00000cb0 <__udivmodhi4>:
 cb0:	aa 1b       	sub	r26, r26
 cb2:	bb 1b       	sub	r27, r27
 cb4:	51 e1       	ldi	r21, 0x11	; 17
 cb6:	07 c0       	rjmp	.+14     	; 0xcc6 <__udivmodhi4_ep>

00000cb8 <__udivmodhi4_loop>:
 cb8:	aa 1f       	adc	r26, r26
 cba:	bb 1f       	adc	r27, r27
 cbc:	a6 17       	cp	r26, r22
 cbe:	b7 07       	cpc	r27, r23
 cc0:	10 f0       	brcs	.+4      	; 0xcc6 <__udivmodhi4_ep>
 cc2:	a6 1b       	sub	r26, r22
 cc4:	b7 0b       	sbc	r27, r23

00000cc6 <__udivmodhi4_ep>:
 cc6:	88 1f       	adc	r24, r24
 cc8:	99 1f       	adc	r25, r25
 cca:	5a 95       	dec	r21
 ccc:	a9 f7       	brne	.-22     	; 0xcb8 <__udivmodhi4_loop>
 cce:	80 95       	com	r24
 cd0:	90 95       	com	r25
 cd2:	bc 01       	movw	r22, r24
 cd4:	cd 01       	movw	r24, r26
 cd6:	08 95       	ret

00000cd8 <_exit>:
 cd8:	f8 94       	cli

00000cda <__stop_program>:
 cda:	ff cf       	rjmp	.-2      	; 0xcda <__stop_program>
